(lp0
(S'deps'
p1
ccopy_reg
_reconstructor
p2
(cino.utils
SpaceList
p3
c__builtin__
list
p4
(lp5
S'.build/atmega328/src/dependencies.d'
p6
aS'.build/atmega328/arduino/dependencies.d'
p7
atp8
Rp9
tp10
a(S'stty'
p11
S'/usr/bin/stty'
p12
tp13
a(S'version.txt'
p14
S'/usr/share/arduino/lib/version.txt'
p15
tp16
a(S'used_libs'
p17
(lp18
S'/usr/share/arduino/hardware/arduino/cores/arduino'
p19
atp20
a(S'cc'
p21
S'/usr/share/arduino/hardware/tools/avr/bin/avr-gcc'
p22
tp23
a(S'arduino_libraries_dir'
p24
S'/usr/share/arduino/libraries'
p25
tp26
a(S'arduino_core_dir'
p27
g19
tp28
a(S'boards.txt'
p29
S'/usr/share/arduino/hardware/arduino/boards.txt'
p30
tp31
a(S'cxxflags'
p32
g2
(g3
g4
(lp33
S'-fno-exceptions'
p34
atp35
Rp36
tp37
a(S'arduino_variants_dir'
p38
S'/usr/share/arduino/hardware/arduino/variants'
p39
tp40
a(S'avrdude'
p41
S'/usr/share/arduino/hardware/tools/avrdude'
p42
tp43
a(S'avrdude.conf'
p44
S'/usr/share/arduino/hardware/tools/avrdude.conf'
p45
tp46
a(S'names'
p47
(dp48
S'cpp'
p49
S'%s.cpp'
p50
sS'obj'
p51
S'%s.o'
p52
sS'lib'
p53
S'lib%s.a'
p54
sS'deps'
p55
S'%s.d'
p56
stp57
a(S'cflags'
p58
g2
(g3
g4
(lp59
S'-mmcu=atmega328p'
p60
aS'-ffunction-sections'
p61
aS'-fdata-sections'
p62
aS'-g'
p63
aS'-Os'
p64
aS'-w'
p65
aS'-DF_CPU=16000000L'
p66
aS'-DARDUINO=100'
p67
aS'-I/usr/share/arduino/hardware/arduino/cores/arduino'
p68
aS'-I/usr/share/arduino/hardware/arduino/variants/standard'
p69
aS'-I/usr/share/arduino/hardware/arduino/cores/arduino'
p70
atp71
Rp72
tp73
a(S'elfflags'
p74
g2
(g3
g4
(lp75
g64
aS'-Wl,--gc-sections'
p76
ag60
atp77
Rp78
tp79
a(S'arduino_lib_version'
p80
g2
(cino.environment
Version
p81
c__builtin__
tuple
p82
(I1
I0
tp83
tp84
Rp85
tp86
a(S'objcopy'
p87
S'/usr/share/arduino/hardware/tools/avr/bin/avr-objcopy'
p88
tp89
a(S'ar'
p90
S'/usr/share/arduino/hardware/tools/avr/bin/avr-ar'
p91
tp92
a(S'board_models'
p93
cino.environment
BoardModels
p94
((lp95
(lp96
S'uno'
p97
a(dp98
S'bootloader'
p99
(dp100
S'extended_fuses'
p101
S'0x05'
p102
sS'high_fuses'
p103
S'0xde'
p104
sS'low_fuses'
p105
S'0xff'
p106
sS'lock_bits'
p107
S'0x0F'
p108
sS'file'
p109
S'optiboot_atmega328.hex'
p110
sS'path'
p111
S'optiboot'
p112
sS'unlock_bits'
p113
S'0x3F'
p114
ssS'upload'
p115
(dp116
S'speed'
p117
S'115200'
p118
sS'maximum_size'
p119
S'32256'
p120
sS'protocol'
p121
S'arduino'
p122
ssS'name'
p123
S'Arduino Uno'
p124
sS'build'
p125
(dp126
S'core'
p127
S'arduino'
p128
sS'mcu'
p129
S'atmega328p'
p130
sS'f_cpu'
p131
S'16000000L'
p132
sS'variant'
p133
S'standard'
p134
ssaa(lp135
S'atmega328'
p136
a(dp137
S'bootloader'
p138
(dp139
S'extended_fuses'
p140
S'0x05'
p141
sS'high_fuses'
p142
S'0xDA'
p143
sS'low_fuses'
p144
S'0xFF'
p145
sS'lock_bits'
p146
S'0x0F'
p147
sS'file'
p148
S'ATmegaBOOT_168_atmega328.hex'
p149
sS'path'
p150
S'atmega'
p151
sS'unlock_bits'
p152
S'0x3F'
p153
ssS'upload'
p154
(dp155
S'speed'
p156
S'57600'
p157
sS'maximum_size'
p158
S'30720'
p159
sS'protocol'
p160
S'arduino'
p161
ssS'name'
p162
S'Arduino Duemilanove w/ ATmega328'
p163
sS'build'
p164
(dp165
S'core'
p166
S'arduino'
p167
sS'mcu'
p168
S'atmega328p'
p169
sS'f_cpu'
p170
S'16000000L'
p171
sS'variant'
p172
S'standard'
p173
ssaa(lp174
S'diecimila'
p175
a(dp176
S'bootloader'
p177
(dp178
S'extended_fuses'
p179
S'0x00'
p180
sS'high_fuses'
p181
S'0xdd'
p182
sS'low_fuses'
p183
S'0xff'
p184
sS'lock_bits'
p185
S'0x0F'
p186
sS'file'
p187
S'ATmegaBOOT_168_diecimila.hex'
p188
sS'path'
p189
S'atmega'
p190
sS'unlock_bits'
p191
S'0x3F'
p192
ssS'upload'
p193
(dp194
S'speed'
p195
S'19200'
p196
sS'maximum_size'
p197
S'14336'
p198
sS'protocol'
p199
S'arduino'
p200
ssS'name'
p201
S'Arduino Diecimila or Duemilanove w/ ATmega168'
p202
sS'build'
p203
(dp204
S'core'
p205
S'arduino'
p206
sS'mcu'
p207
S'atmega168'
p208
sS'f_cpu'
p209
S'16000000L'
p210
sS'variant'
p211
S'standard'
p212
ssaa(lp213
S'nano328'
p214
a(dp215
S'bootloader'
p216
(dp217
S'extended_fuses'
p218
S'0x05'
p219
sS'high_fuses'
p220
S'0xDA'
p221
sS'low_fuses'
p222
S'0xFF'
p223
sS'lock_bits'
p224
S'0x0F'
p225
sS'file'
p226
S'ATmegaBOOT_168_atmega328.hex'
p227
sS'path'
p228
S'atmega'
p229
sS'unlock_bits'
p230
S'0x3F'
p231
ssS'upload'
p232
(dp233
S'speed'
p234
S'57600'
p235
sS'maximum_size'
p236
S'30720'
p237
sS'protocol'
p238
S'arduino'
p239
ssS'name'
p240
S'Arduino Nano w/ ATmega328'
p241
sS'build'
p242
(dp243
S'core'
p244
S'arduino'
p245
sS'mcu'
p246
S'atmega328p'
p247
sS'f_cpu'
p248
S'16000000L'
p249
sS'variant'
p250
S'eightanaloginputs'
p251
ssaa(lp252
S'nano'
p253
a(dp254
S'bootloader'
p255
(dp256
S'extended_fuses'
p257
S'0x00'
p258
sS'high_fuses'
p259
S'0xdd'
p260
sS'low_fuses'
p261
S'0xff'
p262
sS'lock_bits'
p263
S'0x0F'
p264
sS'file'
p265
S'ATmegaBOOT_168_diecimila.hex'
p266
sS'path'
p267
S'atmega'
p268
sS'unlock_bits'
p269
S'0x3F'
p270
ssS'upload'
p271
(dp272
S'speed'
p273
S'19200'
p274
sS'maximum_size'
p275
S'14336'
p276
sS'protocol'
p277
S'arduino'
p278
ssS'name'
p279
S'Arduino Nano w/ ATmega168'
p280
sS'build'
p281
(dp282
S'core'
p283
S'arduino'
p284
sS'mcu'
p285
S'atmega168'
p286
sS'f_cpu'
p287
S'16000000L'
p288
sS'variant'
p289
S'eightanaloginputs'
p290
ssaa(lp291
S'mega2560'
p292
a(dp293
S'bootloader'
p294
(dp295
S'extended_fuses'
p296
S'0xFD'
p297
sS'high_fuses'
p298
S'0xD8'
p299
sS'low_fuses'
p300
S'0xFF'
p301
sS'lock_bits'
p302
S'0x0F'
p303
sS'file'
p304
S'stk500boot_v2_mega2560.hex'
p305
sS'path'
p306
S'stk500v2'
p307
sS'unlock_bits'
p308
S'0x3F'
p309
ssS'upload'
p310
(dp311
S'speed'
p312
S'115200'
p313
sS'maximum_size'
p314
S'258048'
p315
sS'protocol'
p316
S'stk500v2'
p317
ssS'name'
p318
S'Arduino Mega 2560 or Mega ADK'
p319
sS'build'
p320
(dp321
S'core'
p322
S'arduino'
p323
sS'mcu'
p324
S'atmega2560'
p325
sS'f_cpu'
p326
S'16000000L'
p327
sS'variant'
p328
S'mega'
p329
ssaa(lp330
S'mega'
p331
a(dp332
S'bootloader'
p333
(dp334
S'extended_fuses'
p335
S'0xF5'
p336
sS'high_fuses'
p337
S'0xDA'
p338
sS'low_fuses'
p339
S'0xFF'
p340
sS'lock_bits'
p341
S'0x0F'
p342
sS'file'
p343
S'ATmegaBOOT_168_atmega1280.hex'
p344
sS'path'
p345
S'atmega'
p346
sS'unlock_bits'
p347
S'0x3F'
p348
ssS'upload'
p349
(dp350
S'speed'
p351
S'57600'
p352
sS'maximum_size'
p353
S'126976'
p354
sS'protocol'
p355
S'arduino'
p356
ssS'name'
p357
S'Arduino Mega (ATmega1280)'
p358
sS'build'
p359
(dp360
S'core'
p361
S'arduino'
p362
sS'mcu'
p363
S'atmega1280'
p364
sS'f_cpu'
p365
S'16000000L'
p366
sS'variant'
p367
S'mega'
p368
ssaa(lp369
S'leonardo'
p370
a(dp371
S'bootloader'
p372
(dp373
S'extended_fuses'
p374
S'0xcb'
p375
sS'high_fuses'
p376
S'0xd8'
p377
sS'low_fuses'
p378
S'0xff'
p379
sS'lock_bits'
p380
S'0x2F'
p381
sS'file'
p382
S'Caterina-Leonardo.hex'
p383
sS'path'
p384
S'caterina'
p385
sS'unlock_bits'
p386
S'0x3F'
p387
ssS'upload'
p388
(dp389
S'speed'
p390
S'57600'
p391
sS'maximum_size'
p392
S'28672'
p393
sS'protocol'
p394
S'avr109'
p395
sS'disable_flushing'
p396
S'true'
p397
ssS'name'
p398
S'Arduino Leonardo'
p399
sS'build'
p400
(dp401
S'core'
p402
S'arduino'
p403
sS'f_cpu'
p404
S'16000000L'
p405
sS'vid'
p406
S'0x2341'
p407
sS'pid'
p408
S'0x8036'
p409
sS'variant'
p410
S'leonardo'
p411
sS'mcu'
p412
S'atmega32u4'
p413
ssaa(lp414
S'mini328'
p415
a(dp416
S'bootloader'
p417
(dp418
S'extended_fuses'
p419
S'0x05'
p420
sS'high_fuses'
p421
S'0xd8'
p422
sS'low_fuses'
p423
S'0xff'
p424
sS'lock_bits'
p425
S'0x0F'
p426
sS'file'
p427
S'optiboot_atmega328-Mini.hex'
p428
sS'path'
p429
S'optiboot'
p430
sS'unlock_bits'
p431
S'0x3F'
p432
ssS'upload'
p433
(dp434
S'speed'
p435
S'115200'
p436
sS'maximum_size'
p437
S'28672'
p438
sS'protocol'
p439
S'arduino'
p440
ssS'name'
p441
S'Arduino Mini w/ ATmega328'
p442
sS'build'
p443
(dp444
S'core'
p445
S'arduino'
p446
sS'mcu'
p447
S'atmega328p'
p448
sS'f_cpu'
p449
S'16000000L'
p450
sS'variant'
p451
S'eightanaloginputs'
p452
ssaa(lp453
S'mini'
p454
a(dp455
S'bootloader'
p456
(dp457
S'extended_fuses'
p458
S'0x00'
p459
sS'high_fuses'
p460
S'0xdd'
p461
sS'low_fuses'
p462
S'0xff'
p463
sS'lock_bits'
p464
S'0x0F'
p465
sS'file'
p466
S'ATmegaBOOT_168_ng.hex'
p467
sS'path'
p468
S'atmega'
p469
sS'unlock_bits'
p470
S'0x3F'
p471
ssS'upload'
p472
(dp473
S'speed'
p474
S'19200'
p475
sS'maximum_size'
p476
S'14336'
p477
sS'protocol'
p478
S'arduino'
p479
ssS'name'
p480
S'Arduino Mini w/ ATmega168'
p481
sS'build'
p482
(dp483
S'core'
p484
S'arduino'
p485
sS'mcu'
p486
S'atmega168'
p487
sS'f_cpu'
p488
S'16000000L'
p489
sS'variant'
p490
S'eightanaloginputs'
p491
ssaa(lp492
S'ethernet'
p493
a(dp494
S'bootloader'
p495
(dp496
S'extended_fuses'
p497
S'0x05'
p498
sS'high_fuses'
p499
S'0xde'
p500
sS'low_fuses'
p501
S'0xff'
p502
sS'lock_bits'
p503
S'0x0F'
p504
sS'file'
p505
S'optiboot_atmega328.hex'
p506
sS'path'
p507
S'optiboot'
p508
sS'unlock_bits'
p509
S'0x3F'
p510
ssS'upload'
p511
(dp512
S'speed'
p513
S'115200'
p514
sS'maximum_size'
p515
S'32256'
p516
sS'protocol'
p517
S'arduino'
p518
ssS'name'
p519
S'Arduino Ethernet'
p520
sS'build'
p521
(dp522
S'f_cpu'
p523
S'16000000L'
p524
sS'mcu'
p525
S'atmega328p'
p526
sS'variant'
p527
S'standard'
p528
sS'core'
p529
S'arduino'
p530
ssaa(lp531
S'fio'
p532
a(dp533
S'bootloader'
p534
(dp535
S'extended_fuses'
p536
S'0x05'
p537
sS'high_fuses'
p538
S'0xDA'
p539
sS'low_fuses'
p540
S'0xFF'
p541
sS'lock_bits'
p542
S'0x0F'
p543
sS'file'
p544
S'ATmegaBOOT_168_atmega328_pro_8MHz.hex'
p545
sS'path'
p546
S'arduino:atmega'
p547
sS'unlock_bits'
p548
S'0x3F'
p549
ssS'upload'
p550
(dp551
S'speed'
p552
S'57600'
p553
sS'maximum_size'
p554
S'30720'
p555
sS'protocol'
p556
S'arduino'
p557
ssS'name'
p558
S'Arduino Fio'
p559
sS'build'
p560
(dp561
S'core'
p562
S'arduino'
p563
sS'mcu'
p564
S'atmega328p'
p565
sS'f_cpu'
p566
S'8000000L'
p567
sS'variant'
p568
S'eightanaloginputs'
p569
ssaa(lp570
S'bt328'
p571
a(dp572
S'bootloader'
p573
(dp574
S'extended_fuses'
p575
S'0x05'
p576
sS'high_fuses'
p577
S'0xd8'
p578
sS'low_fuses'
p579
S'0xff'
p580
sS'lock_bits'
p581
S'0x0F'
p582
sS'file'
p583
S'ATmegaBOOT_168_atmega328_bt.hex'
p584
sS'path'
p585
S'bt'
p586
sS'unlock_bits'
p587
S'0x3F'
p588
ssS'upload'
p589
(dp590
S'speed'
p591
S'19200'
p592
sS'maximum_size'
p593
S'28672'
p594
sS'protocol'
p595
S'arduino'
p596
sS'disable_flushing'
p597
S'true'
p598
ssS'name'
p599
S'Arduino BT w/ ATmega328'
p600
sS'build'
p601
(dp602
S'core'
p603
S'arduino'
p604
sS'mcu'
p605
S'atmega328p'
p606
sS'f_cpu'
p607
S'16000000L'
p608
sS'variant'
p609
S'eightanaloginputs'
p610
ssaa(lp611
S'bt'
p612
a(dp613
S'bootloader'
p614
(dp615
S'extended_fuses'
p616
S'0x00'
p617
sS'high_fuses'
p618
S'0xdd'
p619
sS'low_fuses'
p620
S'0xff'
p621
sS'lock_bits'
p622
S'0x0F'
p623
sS'file'
p624
S'ATmegaBOOT_168.hex'
p625
sS'path'
p626
S'bt'
p627
sS'unlock_bits'
p628
S'0x3F'
p629
ssS'upload'
p630
(dp631
S'speed'
p632
S'19200'
p633
sS'maximum_size'
p634
S'14336'
p635
sS'protocol'
p636
S'arduino'
p637
sS'disable_flushing'
p638
S'true'
p639
ssS'name'
p640
S'Arduino BT w/ ATmega168'
p641
sS'build'
p642
(dp643
S'core'
p644
S'arduino'
p645
sS'mcu'
p646
S'atmega168'
p647
sS'f_cpu'
p648
S'16000000L'
p649
sS'variant'
p650
S'eightanaloginputs'
p651
ssaa(lp652
S'lilypad328'
p653
a(dp654
S'bootloader'
p655
(dp656
S'extended_fuses'
p657
S'0x05'
p658
sS'high_fuses'
p659
S'0xDA'
p660
sS'low_fuses'
p661
S'0xFF'
p662
sS'lock_bits'
p663
S'0x0F'
p664
sS'file'
p665
S'ATmegaBOOT_168_atmega328_pro_8MHz.hex'
p666
sS'path'
p667
S'atmega'
p668
sS'unlock_bits'
p669
S'0x3F'
p670
ssS'upload'
p671
(dp672
S'speed'
p673
S'57600'
p674
sS'maximum_size'
p675
S'30720'
p676
sS'protocol'
p677
S'arduino'
p678
ssS'name'
p679
S'LilyPad Arduino w/ ATmega328'
p680
sS'build'
p681
(dp682
S'core'
p683
S'arduino'
p684
sS'mcu'
p685
S'atmega328p'
p686
sS'f_cpu'
p687
S'8000000L'
p688
sS'variant'
p689
S'standard'
p690
ssaa(lp691
S'lilypad'
p692
a(dp693
S'bootloader'
p694
(dp695
S'extended_fuses'
p696
S'0x00'
p697
sS'high_fuses'
p698
S'0xdd'
p699
sS'low_fuses'
p700
S'0xe2'
p701
sS'lock_bits'
p702
S'0x0F'
p703
sS'file'
p704
S'LilyPadBOOT_168.hex'
p705
sS'path'
p706
S'lilypad'
p707
sS'unlock_bits'
p708
S'0x3F'
p709
ssS'upload'
p710
(dp711
S'speed'
p712
S'19200'
p713
sS'maximum_size'
p714
S'14336'
p715
sS'protocol'
p716
S'arduino'
p717
ssS'name'
p718
S'LilyPad Arduino w/ ATmega168'
p719
sS'build'
p720
(dp721
S'core'
p722
S'arduino'
p723
sS'mcu'
p724
S'atmega168'
p725
sS'f_cpu'
p726
S'8000000L'
p727
sS'variant'
p728
S'standard'
p729
ssaa(lp730
S'pro5v328'
p731
a(dp732
S'bootloader'
p733
(dp734
S'extended_fuses'
p735
S'0x05'
p736
sS'high_fuses'
p737
S'0xDA'
p738
sS'low_fuses'
p739
S'0xFF'
p740
sS'lock_bits'
p741
S'0x0F'
p742
sS'file'
p743
S'ATmegaBOOT_168_atmega328.hex'
p744
sS'path'
p745
S'atmega'
p746
sS'unlock_bits'
p747
S'0x3F'
p748
ssS'upload'
p749
(dp750
S'speed'
p751
S'57600'
p752
sS'maximum_size'
p753
S'30720'
p754
sS'protocol'
p755
S'arduino'
p756
ssS'name'
p757
S'Arduino Pro or Pro Mini (5V, 16 MHz) w/ ATmega328'
p758
sS'build'
p759
(dp760
S'core'
p761
S'arduino'
p762
sS'mcu'
p763
S'atmega328p'
p764
sS'f_cpu'
p765
S'16000000L'
p766
sS'variant'
p767
S'standard'
p768
ssaa(lp769
S'pro5v'
p770
a(dp771
S'bootloader'
p772
(dp773
S'extended_fuses'
p774
S'0x00'
p775
sS'high_fuses'
p776
S'0xdd'
p777
sS'low_fuses'
p778
S'0xff'
p779
sS'lock_bits'
p780
S'0x0F'
p781
sS'file'
p782
S'ATmegaBOOT_168_diecimila.hex'
p783
sS'path'
p784
S'atmega'
p785
sS'unlock_bits'
p786
S'0x3F'
p787
ssS'upload'
p788
(dp789
S'speed'
p790
S'19200'
p791
sS'maximum_size'
p792
S'14336'
p793
sS'protocol'
p794
S'arduino'
p795
ssS'name'
p796
S'Arduino Pro or Pro Mini (5V, 16 MHz) w/ ATmega168'
p797
sS'build'
p798
(dp799
S'core'
p800
S'arduino'
p801
sS'mcu'
p802
S'atmega168'
p803
sS'f_cpu'
p804
S'16000000L'
p805
sS'variant'
p806
S'standard'
p807
ssaa(lp808
S'pro328'
p809
a(dp810
S'bootloader'
p811
(dp812
S'extended_fuses'
p813
S'0x05'
p814
sS'high_fuses'
p815
S'0xDA'
p816
sS'low_fuses'
p817
S'0xFF'
p818
sS'lock_bits'
p819
S'0x0F'
p820
sS'file'
p821
S'ATmegaBOOT_168_atmega328_pro_8MHz.hex'
p822
sS'path'
p823
S'atmega'
p824
sS'unlock_bits'
p825
S'0x3F'
p826
ssS'upload'
p827
(dp828
S'speed'
p829
S'57600'
p830
sS'maximum_size'
p831
S'30720'
p832
sS'protocol'
p833
S'arduino'
p834
ssS'name'
p835
S'Arduino Pro or Pro Mini (3.3V, 8 MHz) w/ ATmega328'
p836
sS'build'
p837
(dp838
S'core'
p839
S'arduino'
p840
sS'mcu'
p841
S'atmega328p'
p842
sS'f_cpu'
p843
S'8000000L'
p844
sS'variant'
p845
S'standard'
p846
ssaa(lp847
S'pro'
p848
a(dp849
S'bootloader'
p850
(dp851
S'extended_fuses'
p852
S'0x00'
p853
sS'high_fuses'
p854
S'0xdd'
p855
sS'low_fuses'
p856
S'0xc6'
p857
sS'lock_bits'
p858
S'0x0F'
p859
sS'file'
p860
S'ATmegaBOOT_168_pro_8MHz.hex'
p861
sS'path'
p862
S'atmega'
p863
sS'unlock_bits'
p864
S'0x3F'
p865
ssS'upload'
p866
(dp867
S'speed'
p868
S'19200'
p869
sS'maximum_size'
p870
S'14336'
p871
sS'protocol'
p872
S'arduino'
p873
ssS'name'
p874
S'Arduino Pro or Pro Mini (3.3V, 8 MHz) w/ ATmega168'
p875
sS'build'
p876
(dp877
S'core'
p878
S'arduino'
p879
sS'mcu'
p880
S'atmega168'
p881
sS'f_cpu'
p882
S'8000000L'
p883
sS'variant'
p884
S'standard'
p885
ssaa(lp886
S'atmega168'
p887
a(dp888
S'bootloader'
p889
(dp890
S'extended_fuses'
p891
S'0x00'
p892
sS'high_fuses'
p893
S'0xdd'
p894
sS'low_fuses'
p895
S'0xff'
p896
sS'lock_bits'
p897
S'0x0F'
p898
sS'file'
p899
S'ATmegaBOOT_168_ng.hex'
p900
sS'path'
p901
S'atmega'
p902
sS'unlock_bits'
p903
S'0x3F'
p904
ssS'upload'
p905
(dp906
S'speed'
p907
S'19200'
p908
sS'maximum_size'
p909
S'14336'
p910
sS'protocol'
p911
S'arduino'
p912
ssS'name'
p913
S'Arduino NG or older w/ ATmega168'
p914
sS'build'
p915
(dp916
S'core'
p917
S'arduino'
p918
sS'mcu'
p919
S'atmega168'
p920
sS'f_cpu'
p921
S'16000000L'
p922
sS'variant'
p923
S'standard'
p924
ssaa(lp925
S'atmega8'
p926
a(dp927
S'bootloader'
p928
(dp929
S'high_fuses'
p930
S'0xca'
p931
sS'low_fuses'
p932
S'0xdf'
p933
sS'lock_bits'
p934
S'0x0F'
p935
sS'file'
p936
S'ATmegaBOOT.hex'
p937
sS'path'
p938
S'atmega8'
p939
sS'unlock_bits'
p940
S'0x3F'
p941
ssS'upload'
p942
(dp943
S'speed'
p944
S'19200'
p945
sS'maximum_size'
p946
S'7168'
p947
sS'protocol'
p948
S'arduino'
p949
ssS'name'
p950
S'Arduino NG or older w/ ATmega8'
p951
sS'build'
p952
(dp953
S'core'
p954
S'arduino'
p955
sS'mcu'
p956
S'atmega8'
p957
sS'f_cpu'
p958
S'16000000L'
p959
sS'variant'
p960
S'standard'
p961
ssaatp962
Rp963
(dp964
S'default'
p965
S'uno'
p966
sbtp967
a(S'cxx'
p968
S'/usr/share/arduino/hardware/tools/avr/bin/avr-g++'
p969
tp970
a(S'build_dir'
p971
S'.build/atmega328'
p972
tp973
a.