(lp0
(S'stty'
p1
S'/usr/bin/stty'
p2
tp3
a(S'version.txt'
p4
S'/usr/share/arduino/lib/version.txt'
p5
tp6
a(S'used_libs'
p7
(lp8
S'/usr/share/arduino/libraries/Wire'
p9
aS'/usr/share/arduino/hardware/arduino/cores/arduino'
p10
atp11
a(S'cc'
p12
S'/usr/share/arduino/hardware/tools/avr/bin/avr-gcc'
p13
tp14
a(S'cflags'
p15
ccopy_reg
_reconstructor
p16
(cino.utils
SpaceList
p17
c__builtin__
list
p18
(lp19
S'-mmcu=atmega328p'
p20
aS'-ffunction-sections'
p21
aS'-fdata-sections'
p22
aS'-g'
p23
aS'-Os'
p24
aS'-w'
p25
aS'-DF_CPU=16000000L'
p26
aS'-DARDUINO=100'
p27
aS'-I/usr/share/arduino/hardware/arduino/cores/arduino'
p28
aS'-I/usr/share/arduino/hardware/arduino/variants/standard'
p29
aS'-I/usr/share/arduino/libraries/Wire'
p30
aS'-I/usr/share/arduino/libraries/Wire/utility'
p31
aS'-I/usr/share/arduino/hardware/arduino/cores/arduino'
p32
atp33
Rp34
tp35
a(S'arduino_libraries_dir'
p36
S'/usr/share/arduino/libraries'
p37
tp38
a(S'arduino_core_dir'
p39
g10
tp40
a(S'boards.txt'
p41
S'/usr/share/arduino/hardware/arduino/boards.txt'
p42
tp43
a(S'cxxflags'
p44
g16
(g17
g18
(lp45
S'-fno-exceptions'
p46
atp47
Rp48
tp49
a(S'arduino_variants_dir'
p50
S'/usr/share/arduino/hardware/arduino/variants'
p51
tp52
a(S'avrdude'
p53
S'/usr/share/arduino/hardware/tools/avrdude'
p54
tp55
a(S'avrdude.conf'
p56
S'/usr/share/arduino/hardware/tools/avrdude.conf'
p57
tp58
a(S'names'
p59
(dp60
S'cpp'
p61
S'%s.cpp'
p62
sS'obj'
p63
S'%s.o'
p64
sS'lib'
p65
S'lib%s.a'
p66
sS'deps'
p67
S'%s.d'
p68
stp69
a(S'deps'
p70
g16
(g17
g18
(lp71
S'.build/atmega328/src/dependencies.d'
p72
aS'.build/atmega328/arduino/dependencies.d'
p73
aS'.build/atmega328/Wire/dependencies.d'
p74
atp75
Rp76
tp77
a(S'elfflags'
p78
g16
(g17
g18
(lp79
g24
aS'-Wl,--gc-sections'
p80
ag20
atp81
Rp82
tp83
a(S'arduino_lib_version'
p84
g16
(cino.environment
Version
p85
c__builtin__
tuple
p86
(I1
I0
tp87
tp88
Rp89
tp90
a(S'objcopy'
p91
S'/usr/share/arduino/hardware/tools/avr/bin/avr-objcopy'
p92
tp93
a(S'ar'
p94
S'/usr/share/arduino/hardware/tools/avr/bin/avr-ar'
p95
tp96
a(S'board_models'
p97
cino.environment
BoardModels
p98
((lp99
(lp100
S'uno'
p101
a(dp102
S'build'
p103
(dp104
S'core'
p105
S'arduino'
p106
sS'mcu'
p107
S'atmega328p'
p108
sS'f_cpu'
p109
S'16000000L'
p110
sS'variant'
p111
S'standard'
p112
ssS'bootloader'
p113
(dp114
S'extended_fuses'
p115
S'0x05'
p116
sS'high_fuses'
p117
S'0xde'
p118
sS'low_fuses'
p119
S'0xff'
p120
sS'lock_bits'
p121
S'0x0F'
p122
sS'file'
p123
S'optiboot_atmega328.hex'
p124
sS'path'
p125
S'optiboot'
p126
sS'unlock_bits'
p127
S'0x3F'
p128
ssS'upload'
p129
(dp130
S'protocol'
p131
S'arduino'
p132
sS'maximum_size'
p133
S'32256'
p134
sS'speed'
p135
S'115200'
p136
ssS'name'
p137
S'Arduino Uno'
p138
saa(lp139
S'atmega328'
p140
a(dp141
S'build'
p142
(dp143
S'core'
p144
S'arduino'
p145
sS'mcu'
p146
S'atmega328p'
p147
sS'f_cpu'
p148
S'16000000L'
p149
sS'variant'
p150
S'standard'
p151
ssS'bootloader'
p152
(dp153
S'extended_fuses'
p154
S'0x05'
p155
sS'high_fuses'
p156
S'0xDA'
p157
sS'low_fuses'
p158
S'0xFF'
p159
sS'lock_bits'
p160
S'0x0F'
p161
sS'file'
p162
S'ATmegaBOOT_168_atmega328.hex'
p163
sS'path'
p164
S'atmega'
p165
sS'unlock_bits'
p166
S'0x3F'
p167
ssS'upload'
p168
(dp169
S'protocol'
p170
S'arduino'
p171
sS'maximum_size'
p172
S'30720'
p173
sS'speed'
p174
S'57600'
p175
ssS'name'
p176
S'Arduino Duemilanove w/ ATmega328'
p177
saa(lp178
S'diecimila'
p179
a(dp180
S'build'
p181
(dp182
S'core'
p183
S'arduino'
p184
sS'mcu'
p185
S'atmega168'
p186
sS'f_cpu'
p187
S'16000000L'
p188
sS'variant'
p189
S'standard'
p190
ssS'bootloader'
p191
(dp192
S'extended_fuses'
p193
S'0x00'
p194
sS'high_fuses'
p195
S'0xdd'
p196
sS'low_fuses'
p197
S'0xff'
p198
sS'lock_bits'
p199
S'0x0F'
p200
sS'file'
p201
S'ATmegaBOOT_168_diecimila.hex'
p202
sS'path'
p203
S'atmega'
p204
sS'unlock_bits'
p205
S'0x3F'
p206
ssS'upload'
p207
(dp208
S'protocol'
p209
S'arduino'
p210
sS'maximum_size'
p211
S'14336'
p212
sS'speed'
p213
S'19200'
p214
ssS'name'
p215
S'Arduino Diecimila or Duemilanove w/ ATmega168'
p216
saa(lp217
S'nano328'
p218
a(dp219
S'build'
p220
(dp221
S'core'
p222
S'arduino'
p223
sS'mcu'
p224
S'atmega328p'
p225
sS'f_cpu'
p226
S'16000000L'
p227
sS'variant'
p228
S'eightanaloginputs'
p229
ssS'bootloader'
p230
(dp231
S'extended_fuses'
p232
S'0x05'
p233
sS'high_fuses'
p234
S'0xDA'
p235
sS'low_fuses'
p236
S'0xFF'
p237
sS'lock_bits'
p238
S'0x0F'
p239
sS'file'
p240
S'ATmegaBOOT_168_atmega328.hex'
p241
sS'path'
p242
S'atmega'
p243
sS'unlock_bits'
p244
S'0x3F'
p245
ssS'upload'
p246
(dp247
S'protocol'
p248
S'arduino'
p249
sS'maximum_size'
p250
S'30720'
p251
sS'speed'
p252
S'57600'
p253
ssS'name'
p254
S'Arduino Nano w/ ATmega328'
p255
saa(lp256
S'nano'
p257
a(dp258
S'build'
p259
(dp260
S'core'
p261
S'arduino'
p262
sS'mcu'
p263
S'atmega168'
p264
sS'f_cpu'
p265
S'16000000L'
p266
sS'variant'
p267
S'eightanaloginputs'
p268
ssS'bootloader'
p269
(dp270
S'extended_fuses'
p271
S'0x00'
p272
sS'high_fuses'
p273
S'0xdd'
p274
sS'low_fuses'
p275
S'0xff'
p276
sS'lock_bits'
p277
S'0x0F'
p278
sS'file'
p279
S'ATmegaBOOT_168_diecimila.hex'
p280
sS'path'
p281
S'atmega'
p282
sS'unlock_bits'
p283
S'0x3F'
p284
ssS'upload'
p285
(dp286
S'protocol'
p287
S'arduino'
p288
sS'maximum_size'
p289
S'14336'
p290
sS'speed'
p291
S'19200'
p292
ssS'name'
p293
S'Arduino Nano w/ ATmega168'
p294
saa(lp295
S'mega2560'
p296
a(dp297
S'build'
p298
(dp299
S'core'
p300
S'arduino'
p301
sS'mcu'
p302
S'atmega2560'
p303
sS'f_cpu'
p304
S'16000000L'
p305
sS'variant'
p306
S'mega'
p307
ssS'bootloader'
p308
(dp309
S'extended_fuses'
p310
S'0xFD'
p311
sS'high_fuses'
p312
S'0xD8'
p313
sS'low_fuses'
p314
S'0xFF'
p315
sS'lock_bits'
p316
S'0x0F'
p317
sS'file'
p318
S'stk500boot_v2_mega2560.hex'
p319
sS'path'
p320
S'stk500v2'
p321
sS'unlock_bits'
p322
S'0x3F'
p323
ssS'upload'
p324
(dp325
S'protocol'
p326
S'stk500v2'
p327
sS'maximum_size'
p328
S'258048'
p329
sS'speed'
p330
S'115200'
p331
ssS'name'
p332
S'Arduino Mega 2560 or Mega ADK'
p333
saa(lp334
S'mega'
p335
a(dp336
S'build'
p337
(dp338
S'core'
p339
S'arduino'
p340
sS'mcu'
p341
S'atmega1280'
p342
sS'f_cpu'
p343
S'16000000L'
p344
sS'variant'
p345
S'mega'
p346
ssS'bootloader'
p347
(dp348
S'extended_fuses'
p349
S'0xF5'
p350
sS'high_fuses'
p351
S'0xDA'
p352
sS'low_fuses'
p353
S'0xFF'
p354
sS'lock_bits'
p355
S'0x0F'
p356
sS'file'
p357
S'ATmegaBOOT_168_atmega1280.hex'
p358
sS'path'
p359
S'atmega'
p360
sS'unlock_bits'
p361
S'0x3F'
p362
ssS'upload'
p363
(dp364
S'protocol'
p365
S'arduino'
p366
sS'maximum_size'
p367
S'126976'
p368
sS'speed'
p369
S'57600'
p370
ssS'name'
p371
S'Arduino Mega (ATmega1280)'
p372
saa(lp373
S'leonardo'
p374
a(dp375
S'build'
p376
(dp377
S'core'
p378
S'arduino'
p379
sS'f_cpu'
p380
S'16000000L'
p381
sS'vid'
p382
S'0x2341'
p383
sS'pid'
p384
S'0x8036'
p385
sS'variant'
p386
S'leonardo'
p387
sS'mcu'
p388
S'atmega32u4'
p389
ssS'bootloader'
p390
(dp391
S'extended_fuses'
p392
S'0xcb'
p393
sS'high_fuses'
p394
S'0xd8'
p395
sS'low_fuses'
p396
S'0xff'
p397
sS'lock_bits'
p398
S'0x2F'
p399
sS'file'
p400
S'Caterina-Leonardo.hex'
p401
sS'path'
p402
S'caterina'
p403
sS'unlock_bits'
p404
S'0x3F'
p405
ssS'upload'
p406
(dp407
S'protocol'
p408
S'avr109'
p409
sS'maximum_size'
p410
S'28672'
p411
sS'speed'
p412
S'57600'
p413
sS'disable_flushing'
p414
S'true'
p415
ssS'name'
p416
S'Arduino Leonardo'
p417
saa(lp418
S'mini328'
p419
a(dp420
S'build'
p421
(dp422
S'core'
p423
S'arduino'
p424
sS'mcu'
p425
S'atmega328p'
p426
sS'f_cpu'
p427
S'16000000L'
p428
sS'variant'
p429
S'eightanaloginputs'
p430
ssS'bootloader'
p431
(dp432
S'extended_fuses'
p433
S'0x05'
p434
sS'high_fuses'
p435
S'0xd8'
p436
sS'low_fuses'
p437
S'0xff'
p438
sS'lock_bits'
p439
S'0x0F'
p440
sS'file'
p441
S'optiboot_atmega328-Mini.hex'
p442
sS'path'
p443
S'optiboot'
p444
sS'unlock_bits'
p445
S'0x3F'
p446
ssS'upload'
p447
(dp448
S'protocol'
p449
S'arduino'
p450
sS'maximum_size'
p451
S'28672'
p452
sS'speed'
p453
S'115200'
p454
ssS'name'
p455
S'Arduino Mini w/ ATmega328'
p456
saa(lp457
S'mini'
p458
a(dp459
S'build'
p460
(dp461
S'core'
p462
S'arduino'
p463
sS'mcu'
p464
S'atmega168'
p465
sS'f_cpu'
p466
S'16000000L'
p467
sS'variant'
p468
S'eightanaloginputs'
p469
ssS'bootloader'
p470
(dp471
S'extended_fuses'
p472
S'0x00'
p473
sS'high_fuses'
p474
S'0xdd'
p475
sS'low_fuses'
p476
S'0xff'
p477
sS'lock_bits'
p478
S'0x0F'
p479
sS'file'
p480
S'ATmegaBOOT_168_ng.hex'
p481
sS'path'
p482
S'atmega'
p483
sS'unlock_bits'
p484
S'0x3F'
p485
ssS'upload'
p486
(dp487
S'protocol'
p488
S'arduino'
p489
sS'maximum_size'
p490
S'14336'
p491
sS'speed'
p492
S'19200'
p493
ssS'name'
p494
S'Arduino Mini w/ ATmega168'
p495
saa(lp496
S'ethernet'
p497
a(dp498
S'build'
p499
(dp500
S'variant'
p501
S'standard'
p502
sS'mcu'
p503
S'atmega328p'
p504
sS'f_cpu'
p505
S'16000000L'
p506
sS'core'
p507
S'arduino'
p508
ssS'bootloader'
p509
(dp510
S'extended_fuses'
p511
S'0x05'
p512
sS'high_fuses'
p513
S'0xde'
p514
sS'low_fuses'
p515
S'0xff'
p516
sS'lock_bits'
p517
S'0x0F'
p518
sS'file'
p519
S'optiboot_atmega328.hex'
p520
sS'path'
p521
S'optiboot'
p522
sS'unlock_bits'
p523
S'0x3F'
p524
ssS'upload'
p525
(dp526
S'protocol'
p527
S'arduino'
p528
sS'maximum_size'
p529
S'32256'
p530
sS'speed'
p531
S'115200'
p532
ssS'name'
p533
S'Arduino Ethernet'
p534
saa(lp535
S'fio'
p536
a(dp537
S'build'
p538
(dp539
S'core'
p540
S'arduino'
p541
sS'mcu'
p542
S'atmega328p'
p543
sS'f_cpu'
p544
S'8000000L'
p545
sS'variant'
p546
S'eightanaloginputs'
p547
ssS'bootloader'
p548
(dp549
S'extended_fuses'
p550
S'0x05'
p551
sS'high_fuses'
p552
S'0xDA'
p553
sS'low_fuses'
p554
S'0xFF'
p555
sS'lock_bits'
p556
S'0x0F'
p557
sS'file'
p558
S'ATmegaBOOT_168_atmega328_pro_8MHz.hex'
p559
sS'path'
p560
S'arduino:atmega'
p561
sS'unlock_bits'
p562
S'0x3F'
p563
ssS'upload'
p564
(dp565
S'protocol'
p566
S'arduino'
p567
sS'maximum_size'
p568
S'30720'
p569
sS'speed'
p570
S'57600'
p571
ssS'name'
p572
S'Arduino Fio'
p573
saa(lp574
S'bt328'
p575
a(dp576
S'build'
p577
(dp578
S'core'
p579
S'arduino'
p580
sS'mcu'
p581
S'atmega328p'
p582
sS'f_cpu'
p583
S'16000000L'
p584
sS'variant'
p585
S'eightanaloginputs'
p586
ssS'bootloader'
p587
(dp588
S'extended_fuses'
p589
S'0x05'
p590
sS'high_fuses'
p591
S'0xd8'
p592
sS'low_fuses'
p593
S'0xff'
p594
sS'lock_bits'
p595
S'0x0F'
p596
sS'file'
p597
S'ATmegaBOOT_168_atmega328_bt.hex'
p598
sS'path'
p599
S'bt'
p600
sS'unlock_bits'
p601
S'0x3F'
p602
ssS'upload'
p603
(dp604
S'protocol'
p605
S'arduino'
p606
sS'maximum_size'
p607
S'28672'
p608
sS'speed'
p609
S'19200'
p610
sS'disable_flushing'
p611
S'true'
p612
ssS'name'
p613
S'Arduino BT w/ ATmega328'
p614
saa(lp615
S'bt'
p616
a(dp617
S'build'
p618
(dp619
S'core'
p620
S'arduino'
p621
sS'mcu'
p622
S'atmega168'
p623
sS'f_cpu'
p624
S'16000000L'
p625
sS'variant'
p626
S'eightanaloginputs'
p627
ssS'bootloader'
p628
(dp629
S'extended_fuses'
p630
S'0x00'
p631
sS'high_fuses'
p632
S'0xdd'
p633
sS'low_fuses'
p634
S'0xff'
p635
sS'lock_bits'
p636
S'0x0F'
p637
sS'file'
p638
S'ATmegaBOOT_168.hex'
p639
sS'path'
p640
S'bt'
p641
sS'unlock_bits'
p642
S'0x3F'
p643
ssS'upload'
p644
(dp645
S'protocol'
p646
S'arduino'
p647
sS'maximum_size'
p648
S'14336'
p649
sS'speed'
p650
S'19200'
p651
sS'disable_flushing'
p652
S'true'
p653
ssS'name'
p654
S'Arduino BT w/ ATmega168'
p655
saa(lp656
S'lilypad328'
p657
a(dp658
S'build'
p659
(dp660
S'core'
p661
S'arduino'
p662
sS'mcu'
p663
S'atmega328p'
p664
sS'f_cpu'
p665
S'8000000L'
p666
sS'variant'
p667
S'standard'
p668
ssS'bootloader'
p669
(dp670
S'extended_fuses'
p671
S'0x05'
p672
sS'high_fuses'
p673
S'0xDA'
p674
sS'low_fuses'
p675
S'0xFF'
p676
sS'lock_bits'
p677
S'0x0F'
p678
sS'file'
p679
S'ATmegaBOOT_168_atmega328_pro_8MHz.hex'
p680
sS'path'
p681
S'atmega'
p682
sS'unlock_bits'
p683
S'0x3F'
p684
ssS'upload'
p685
(dp686
S'protocol'
p687
S'arduino'
p688
sS'maximum_size'
p689
S'30720'
p690
sS'speed'
p691
S'57600'
p692
ssS'name'
p693
S'LilyPad Arduino w/ ATmega328'
p694
saa(lp695
S'lilypad'
p696
a(dp697
S'build'
p698
(dp699
S'core'
p700
S'arduino'
p701
sS'mcu'
p702
S'atmega168'
p703
sS'f_cpu'
p704
S'8000000L'
p705
sS'variant'
p706
S'standard'
p707
ssS'bootloader'
p708
(dp709
S'extended_fuses'
p710
S'0x00'
p711
sS'high_fuses'
p712
S'0xdd'
p713
sS'low_fuses'
p714
S'0xe2'
p715
sS'lock_bits'
p716
S'0x0F'
p717
sS'file'
p718
S'LilyPadBOOT_168.hex'
p719
sS'path'
p720
S'lilypad'
p721
sS'unlock_bits'
p722
S'0x3F'
p723
ssS'upload'
p724
(dp725
S'protocol'
p726
S'arduino'
p727
sS'maximum_size'
p728
S'14336'
p729
sS'speed'
p730
S'19200'
p731
ssS'name'
p732
S'LilyPad Arduino w/ ATmega168'
p733
saa(lp734
S'pro5v328'
p735
a(dp736
S'build'
p737
(dp738
S'core'
p739
S'arduino'
p740
sS'mcu'
p741
S'atmega328p'
p742
sS'f_cpu'
p743
S'16000000L'
p744
sS'variant'
p745
S'standard'
p746
ssS'bootloader'
p747
(dp748
S'extended_fuses'
p749
S'0x05'
p750
sS'high_fuses'
p751
S'0xDA'
p752
sS'low_fuses'
p753
S'0xFF'
p754
sS'lock_bits'
p755
S'0x0F'
p756
sS'file'
p757
S'ATmegaBOOT_168_atmega328.hex'
p758
sS'path'
p759
S'atmega'
p760
sS'unlock_bits'
p761
S'0x3F'
p762
ssS'upload'
p763
(dp764
S'protocol'
p765
S'arduino'
p766
sS'maximum_size'
p767
S'30720'
p768
sS'speed'
p769
S'57600'
p770
ssS'name'
p771
S'Arduino Pro or Pro Mini (5V, 16 MHz) w/ ATmega328'
p772
saa(lp773
S'pro5v'
p774
a(dp775
S'build'
p776
(dp777
S'core'
p778
S'arduino'
p779
sS'mcu'
p780
S'atmega168'
p781
sS'f_cpu'
p782
S'16000000L'
p783
sS'variant'
p784
S'standard'
p785
ssS'bootloader'
p786
(dp787
S'extended_fuses'
p788
S'0x00'
p789
sS'high_fuses'
p790
S'0xdd'
p791
sS'low_fuses'
p792
S'0xff'
p793
sS'lock_bits'
p794
S'0x0F'
p795
sS'file'
p796
S'ATmegaBOOT_168_diecimila.hex'
p797
sS'path'
p798
S'atmega'
p799
sS'unlock_bits'
p800
S'0x3F'
p801
ssS'upload'
p802
(dp803
S'protocol'
p804
S'arduino'
p805
sS'maximum_size'
p806
S'14336'
p807
sS'speed'
p808
S'19200'
p809
ssS'name'
p810
S'Arduino Pro or Pro Mini (5V, 16 MHz) w/ ATmega168'
p811
saa(lp812
S'pro328'
p813
a(dp814
S'build'
p815
(dp816
S'core'
p817
S'arduino'
p818
sS'mcu'
p819
S'atmega328p'
p820
sS'f_cpu'
p821
S'8000000L'
p822
sS'variant'
p823
S'standard'
p824
ssS'bootloader'
p825
(dp826
S'extended_fuses'
p827
S'0x05'
p828
sS'high_fuses'
p829
S'0xDA'
p830
sS'low_fuses'
p831
S'0xFF'
p832
sS'lock_bits'
p833
S'0x0F'
p834
sS'file'
p835
S'ATmegaBOOT_168_atmega328_pro_8MHz.hex'
p836
sS'path'
p837
S'atmega'
p838
sS'unlock_bits'
p839
S'0x3F'
p840
ssS'upload'
p841
(dp842
S'protocol'
p843
S'arduino'
p844
sS'maximum_size'
p845
S'30720'
p846
sS'speed'
p847
S'57600'
p848
ssS'name'
p849
S'Arduino Pro or Pro Mini (3.3V, 8 MHz) w/ ATmega328'
p850
saa(lp851
S'pro'
p852
a(dp853
S'build'
p854
(dp855
S'core'
p856
S'arduino'
p857
sS'mcu'
p858
S'atmega168'
p859
sS'f_cpu'
p860
S'8000000L'
p861
sS'variant'
p862
S'standard'
p863
ssS'bootloader'
p864
(dp865
S'extended_fuses'
p866
S'0x00'
p867
sS'high_fuses'
p868
S'0xdd'
p869
sS'low_fuses'
p870
S'0xc6'
p871
sS'lock_bits'
p872
S'0x0F'
p873
sS'file'
p874
S'ATmegaBOOT_168_pro_8MHz.hex'
p875
sS'path'
p876
S'atmega'
p877
sS'unlock_bits'
p878
S'0x3F'
p879
ssS'upload'
p880
(dp881
S'protocol'
p882
S'arduino'
p883
sS'maximum_size'
p884
S'14336'
p885
sS'speed'
p886
S'19200'
p887
ssS'name'
p888
S'Arduino Pro or Pro Mini (3.3V, 8 MHz) w/ ATmega168'
p889
saa(lp890
S'atmega168'
p891
a(dp892
S'build'
p893
(dp894
S'core'
p895
S'arduino'
p896
sS'mcu'
p897
S'atmega168'
p898
sS'f_cpu'
p899
S'16000000L'
p900
sS'variant'
p901
S'standard'
p902
ssS'bootloader'
p903
(dp904
S'extended_fuses'
p905
S'0x00'
p906
sS'high_fuses'
p907
S'0xdd'
p908
sS'low_fuses'
p909
S'0xff'
p910
sS'lock_bits'
p911
S'0x0F'
p912
sS'file'
p913
S'ATmegaBOOT_168_ng.hex'
p914
sS'path'
p915
S'atmega'
p916
sS'unlock_bits'
p917
S'0x3F'
p918
ssS'upload'
p919
(dp920
S'protocol'
p921
S'arduino'
p922
sS'maximum_size'
p923
S'14336'
p924
sS'speed'
p925
S'19200'
p926
ssS'name'
p927
S'Arduino NG or older w/ ATmega168'
p928
saa(lp929
S'atmega8'
p930
a(dp931
S'build'
p932
(dp933
S'core'
p934
S'arduino'
p935
sS'mcu'
p936
S'atmega8'
p937
sS'f_cpu'
p938
S'16000000L'
p939
sS'variant'
p940
S'standard'
p941
ssS'bootloader'
p942
(dp943
S'high_fuses'
p944
S'0xca'
p945
sS'low_fuses'
p946
S'0xdf'
p947
sS'lock_bits'
p948
S'0x0F'
p949
sS'file'
p950
S'ATmegaBOOT.hex'
p951
sS'path'
p952
S'atmega8'
p953
sS'unlock_bits'
p954
S'0x3F'
p955
ssS'upload'
p956
(dp957
S'protocol'
p958
S'arduino'
p959
sS'maximum_size'
p960
S'7168'
p961
sS'speed'
p962
S'19200'
p963
ssS'name'
p964
S'Arduino NG or older w/ ATmega8'
p965
saatp966
Rp967
(dp968
S'default'
p969
S'uno'
p970
sbtp971
a(S'cxx'
p972
S'/usr/share/arduino/hardware/tools/avr/bin/avr-g++'
p973
tp974
a(S'build_dir'
p975
S'.build/atmega328'
p976
tp977
a.