(lp0
(S'deps'
p1
ccopy_reg
_reconstructor
p2
(cino.utils
SpaceList
p3
c__builtin__
list
p4
(lp5
S'.build/atmega328/src/dependencies.d'
p6
aS'.build/atmega328/arduino/dependencies.d'
p7
aS'.build/atmega328/Wire/dependencies.d'
p8
atp9
Rp10
tp11
a(S'objcopy'
p12
S'/usr/share/arduino/hardware/tools/avr/bin/avr-objcopy'
p13
tp14
a(S'stty'
p15
S'/usr/bin/stty'
p16
tp17
a(S'version.txt'
p18
S'/usr/share/arduino/lib/version.txt'
p19
tp20
a(S'used_libs'
p21
(lp22
S'/usr/share/arduino/libraries/Wire'
p23
aS'/usr/share/arduino/hardware/arduino/cores/arduino'
p24
atp25
a(S'cc'
p26
S'/usr/share/arduino/hardware/tools/avr/bin/avr-gcc'
p27
tp28
a(S'arduino_libraries_dir'
p29
S'/usr/share/arduino/libraries'
p30
tp31
a(S'arduino_core_dir'
p32
g24
tp33
a(S'build_dir'
p34
S'.build/atmega328'
p35
tp36
a(S'cxxflags'
p37
g2
(g3
g4
(lp38
S'-fno-exceptions'
p39
atp40
Rp41
tp42
a(S'arduino_variants_dir'
p43
S'/usr/share/arduino/hardware/arduino/variants'
p44
tp45
a(S'avrdude'
p46
S'/usr/share/arduino/hardware/tools/avrdude'
p47
tp48
a(S'avrdude.conf'
p49
S'/usr/share/arduino/hardware/tools/avrdude.conf'
p50
tp51
a(S'names'
p52
(dp53
S'cpp'
p54
S'%s.cpp'
p55
sS'obj'
p56
S'%s.o'
p57
sS'lib'
p58
S'lib%s.a'
p59
sS'deps'
p60
S'%s.d'
p61
stp62
a(S'cflags'
p63
g2
(g3
g4
(lp64
S'-mmcu=atmega328p'
p65
aS'-ffunction-sections'
p66
aS'-fdata-sections'
p67
aS'-g'
p68
aS'-Os'
p69
aS'-w'
p70
aS'-DF_CPU=16000000L'
p71
aS'-DARDUINO=100'
p72
aS'-I/usr/share/arduino/hardware/arduino/cores/arduino'
p73
aS'-I/usr/share/arduino/hardware/arduino/variants/standard'
p74
aS'-I/usr/share/arduino/libraries/Wire'
p75
aS'-I/usr/share/arduino/libraries/Wire/utility'
p76
aS'-I/usr/share/arduino/hardware/arduino/cores/arduino'
p77
atp78
Rp79
tp80
a(S'elfflags'
p81
g2
(g3
g4
(lp82
g69
aS'-Wl,--gc-sections'
p83
ag65
atp84
Rp85
tp86
a(S'arduino_lib_version'
p87
g2
(cino.environment
Version
p88
c__builtin__
tuple
p89
(I1
I0
tp90
tp91
Rp92
tp93
a(S'boards.txt'
p94
S'/usr/share/arduino/hardware/arduino/boards.txt'
p95
tp96
a(S'ar'
p97
S'/usr/share/arduino/hardware/tools/avr/bin/avr-ar'
p98
tp99
a(S'board_models'
p100
cino.environment
BoardModels
p101
((lp102
(lp103
S'uno'
p104
a(dp105
S'bootloader'
p106
(dp107
S'extended_fuses'
p108
S'0x05'
p109
sS'high_fuses'
p110
S'0xde'
p111
sS'low_fuses'
p112
S'0xff'
p113
sS'lock_bits'
p114
S'0x0F'
p115
sS'file'
p116
S'optiboot_atmega328.hex'
p117
sS'path'
p118
S'optiboot'
p119
sS'unlock_bits'
p120
S'0x3F'
p121
ssS'build'
p122
(dp123
S'core'
p124
S'arduino'
p125
sS'mcu'
p126
S'atmega328p'
p127
sS'f_cpu'
p128
S'16000000L'
p129
sS'variant'
p130
S'standard'
p131
ssS'name'
p132
S'Arduino Uno'
p133
sS'upload'
p134
(dp135
S'speed'
p136
S'115200'
p137
sS'maximum_size'
p138
S'32256'
p139
sS'protocol'
p140
S'arduino'
p141
ssaa(lp142
S'atmega328'
p143
a(dp144
S'bootloader'
p145
(dp146
S'extended_fuses'
p147
S'0x05'
p148
sS'high_fuses'
p149
S'0xDA'
p150
sS'low_fuses'
p151
S'0xFF'
p152
sS'lock_bits'
p153
S'0x0F'
p154
sS'file'
p155
S'ATmegaBOOT_168_atmega328.hex'
p156
sS'path'
p157
S'atmega'
p158
sS'unlock_bits'
p159
S'0x3F'
p160
ssS'build'
p161
(dp162
S'core'
p163
S'arduino'
p164
sS'mcu'
p165
S'atmega328p'
p166
sS'f_cpu'
p167
S'16000000L'
p168
sS'variant'
p169
S'standard'
p170
ssS'name'
p171
S'Arduino Duemilanove w/ ATmega328'
p172
sS'upload'
p173
(dp174
S'speed'
p175
S'57600'
p176
sS'maximum_size'
p177
S'30720'
p178
sS'protocol'
p179
S'arduino'
p180
ssaa(lp181
S'diecimila'
p182
a(dp183
S'bootloader'
p184
(dp185
S'extended_fuses'
p186
S'0x00'
p187
sS'high_fuses'
p188
S'0xdd'
p189
sS'low_fuses'
p190
S'0xff'
p191
sS'lock_bits'
p192
S'0x0F'
p193
sS'file'
p194
S'ATmegaBOOT_168_diecimila.hex'
p195
sS'path'
p196
S'atmega'
p197
sS'unlock_bits'
p198
S'0x3F'
p199
ssS'build'
p200
(dp201
S'core'
p202
S'arduino'
p203
sS'mcu'
p204
S'atmega168'
p205
sS'f_cpu'
p206
S'16000000L'
p207
sS'variant'
p208
S'standard'
p209
ssS'name'
p210
S'Arduino Diecimila or Duemilanove w/ ATmega168'
p211
sS'upload'
p212
(dp213
S'speed'
p214
S'19200'
p215
sS'maximum_size'
p216
S'14336'
p217
sS'protocol'
p218
S'arduino'
p219
ssaa(lp220
S'nano328'
p221
a(dp222
S'bootloader'
p223
(dp224
S'extended_fuses'
p225
S'0x05'
p226
sS'high_fuses'
p227
S'0xDA'
p228
sS'low_fuses'
p229
S'0xFF'
p230
sS'lock_bits'
p231
S'0x0F'
p232
sS'file'
p233
S'ATmegaBOOT_168_atmega328.hex'
p234
sS'path'
p235
S'atmega'
p236
sS'unlock_bits'
p237
S'0x3F'
p238
ssS'build'
p239
(dp240
S'core'
p241
S'arduino'
p242
sS'mcu'
p243
S'atmega328p'
p244
sS'f_cpu'
p245
S'16000000L'
p246
sS'variant'
p247
S'eightanaloginputs'
p248
ssS'name'
p249
S'Arduino Nano w/ ATmega328'
p250
sS'upload'
p251
(dp252
S'speed'
p253
S'57600'
p254
sS'maximum_size'
p255
S'30720'
p256
sS'protocol'
p257
S'arduino'
p258
ssaa(lp259
S'nano'
p260
a(dp261
S'bootloader'
p262
(dp263
S'extended_fuses'
p264
S'0x00'
p265
sS'high_fuses'
p266
S'0xdd'
p267
sS'low_fuses'
p268
S'0xff'
p269
sS'lock_bits'
p270
S'0x0F'
p271
sS'file'
p272
S'ATmegaBOOT_168_diecimila.hex'
p273
sS'path'
p274
S'atmega'
p275
sS'unlock_bits'
p276
S'0x3F'
p277
ssS'build'
p278
(dp279
S'core'
p280
S'arduino'
p281
sS'mcu'
p282
S'atmega168'
p283
sS'f_cpu'
p284
S'16000000L'
p285
sS'variant'
p286
S'eightanaloginputs'
p287
ssS'name'
p288
S'Arduino Nano w/ ATmega168'
p289
sS'upload'
p290
(dp291
S'speed'
p292
S'19200'
p293
sS'maximum_size'
p294
S'14336'
p295
sS'protocol'
p296
S'arduino'
p297
ssaa(lp298
S'mega2560'
p299
a(dp300
S'bootloader'
p301
(dp302
S'extended_fuses'
p303
S'0xFD'
p304
sS'high_fuses'
p305
S'0xD8'
p306
sS'low_fuses'
p307
S'0xFF'
p308
sS'lock_bits'
p309
S'0x0F'
p310
sS'file'
p311
S'stk500boot_v2_mega2560.hex'
p312
sS'path'
p313
S'stk500v2'
p314
sS'unlock_bits'
p315
S'0x3F'
p316
ssS'build'
p317
(dp318
S'core'
p319
S'arduino'
p320
sS'mcu'
p321
S'atmega2560'
p322
sS'f_cpu'
p323
S'16000000L'
p324
sS'variant'
p325
S'mega'
p326
ssS'name'
p327
S'Arduino Mega 2560 or Mega ADK'
p328
sS'upload'
p329
(dp330
S'speed'
p331
S'115200'
p332
sS'maximum_size'
p333
S'258048'
p334
sS'protocol'
p335
S'stk500v2'
p336
ssaa(lp337
S'mega'
p338
a(dp339
S'bootloader'
p340
(dp341
S'extended_fuses'
p342
S'0xF5'
p343
sS'high_fuses'
p344
S'0xDA'
p345
sS'low_fuses'
p346
S'0xFF'
p347
sS'lock_bits'
p348
S'0x0F'
p349
sS'file'
p350
S'ATmegaBOOT_168_atmega1280.hex'
p351
sS'path'
p352
S'atmega'
p353
sS'unlock_bits'
p354
S'0x3F'
p355
ssS'build'
p356
(dp357
S'core'
p358
S'arduino'
p359
sS'mcu'
p360
S'atmega1280'
p361
sS'f_cpu'
p362
S'16000000L'
p363
sS'variant'
p364
S'mega'
p365
ssS'name'
p366
S'Arduino Mega (ATmega1280)'
p367
sS'upload'
p368
(dp369
S'speed'
p370
S'57600'
p371
sS'maximum_size'
p372
S'126976'
p373
sS'protocol'
p374
S'arduino'
p375
ssaa(lp376
S'leonardo'
p377
a(dp378
S'bootloader'
p379
(dp380
S'extended_fuses'
p381
S'0xcb'
p382
sS'high_fuses'
p383
S'0xd8'
p384
sS'low_fuses'
p385
S'0xff'
p386
sS'lock_bits'
p387
S'0x2F'
p388
sS'file'
p389
S'Caterina-Leonardo.hex'
p390
sS'path'
p391
S'caterina'
p392
sS'unlock_bits'
p393
S'0x3F'
p394
ssS'build'
p395
(dp396
S'core'
p397
S'arduino'
p398
sS'f_cpu'
p399
S'16000000L'
p400
sS'vid'
p401
S'0x2341'
p402
sS'pid'
p403
S'0x8036'
p404
sS'variant'
p405
S'leonardo'
p406
sS'mcu'
p407
S'atmega32u4'
p408
ssS'name'
p409
S'Arduino Leonardo'
p410
sS'upload'
p411
(dp412
S'speed'
p413
S'57600'
p414
sS'maximum_size'
p415
S'28672'
p416
sS'protocol'
p417
S'avr109'
p418
sS'disable_flushing'
p419
S'true'
p420
ssaa(lp421
S'mini328'
p422
a(dp423
S'bootloader'
p424
(dp425
S'extended_fuses'
p426
S'0x05'
p427
sS'high_fuses'
p428
S'0xd8'
p429
sS'low_fuses'
p430
S'0xff'
p431
sS'lock_bits'
p432
S'0x0F'
p433
sS'file'
p434
S'optiboot_atmega328-Mini.hex'
p435
sS'path'
p436
S'optiboot'
p437
sS'unlock_bits'
p438
S'0x3F'
p439
ssS'build'
p440
(dp441
S'core'
p442
S'arduino'
p443
sS'mcu'
p444
S'atmega328p'
p445
sS'f_cpu'
p446
S'16000000L'
p447
sS'variant'
p448
S'eightanaloginputs'
p449
ssS'name'
p450
S'Arduino Mini w/ ATmega328'
p451
sS'upload'
p452
(dp453
S'speed'
p454
S'115200'
p455
sS'maximum_size'
p456
S'28672'
p457
sS'protocol'
p458
S'arduino'
p459
ssaa(lp460
S'mini'
p461
a(dp462
S'bootloader'
p463
(dp464
S'extended_fuses'
p465
S'0x00'
p466
sS'high_fuses'
p467
S'0xdd'
p468
sS'low_fuses'
p469
S'0xff'
p470
sS'lock_bits'
p471
S'0x0F'
p472
sS'file'
p473
S'ATmegaBOOT_168_ng.hex'
p474
sS'path'
p475
S'atmega'
p476
sS'unlock_bits'
p477
S'0x3F'
p478
ssS'build'
p479
(dp480
S'core'
p481
S'arduino'
p482
sS'mcu'
p483
S'atmega168'
p484
sS'f_cpu'
p485
S'16000000L'
p486
sS'variant'
p487
S'eightanaloginputs'
p488
ssS'name'
p489
S'Arduino Mini w/ ATmega168'
p490
sS'upload'
p491
(dp492
S'speed'
p493
S'19200'
p494
sS'maximum_size'
p495
S'14336'
p496
sS'protocol'
p497
S'arduino'
p498
ssaa(lp499
S'ethernet'
p500
a(dp501
S'bootloader'
p502
(dp503
S'extended_fuses'
p504
S'0x05'
p505
sS'high_fuses'
p506
S'0xde'
p507
sS'low_fuses'
p508
S'0xff'
p509
sS'lock_bits'
p510
S'0x0F'
p511
sS'file'
p512
S'optiboot_atmega328.hex'
p513
sS'path'
p514
S'optiboot'
p515
sS'unlock_bits'
p516
S'0x3F'
p517
ssS'build'
p518
(dp519
S'f_cpu'
p520
S'16000000L'
p521
sS'mcu'
p522
S'atmega328p'
p523
sS'variant'
p524
S'standard'
p525
sS'core'
p526
S'arduino'
p527
ssS'name'
p528
S'Arduino Ethernet'
p529
sS'upload'
p530
(dp531
S'speed'
p532
S'115200'
p533
sS'maximum_size'
p534
S'32256'
p535
sS'protocol'
p536
S'arduino'
p537
ssaa(lp538
S'fio'
p539
a(dp540
S'bootloader'
p541
(dp542
S'extended_fuses'
p543
S'0x05'
p544
sS'high_fuses'
p545
S'0xDA'
p546
sS'low_fuses'
p547
S'0xFF'
p548
sS'lock_bits'
p549
S'0x0F'
p550
sS'file'
p551
S'ATmegaBOOT_168_atmega328_pro_8MHz.hex'
p552
sS'path'
p553
S'arduino:atmega'
p554
sS'unlock_bits'
p555
S'0x3F'
p556
ssS'build'
p557
(dp558
S'core'
p559
S'arduino'
p560
sS'mcu'
p561
S'atmega328p'
p562
sS'f_cpu'
p563
S'8000000L'
p564
sS'variant'
p565
S'eightanaloginputs'
p566
ssS'name'
p567
S'Arduino Fio'
p568
sS'upload'
p569
(dp570
S'speed'
p571
S'57600'
p572
sS'maximum_size'
p573
S'30720'
p574
sS'protocol'
p575
S'arduino'
p576
ssaa(lp577
S'bt328'
p578
a(dp579
S'bootloader'
p580
(dp581
S'extended_fuses'
p582
S'0x05'
p583
sS'high_fuses'
p584
S'0xd8'
p585
sS'low_fuses'
p586
S'0xff'
p587
sS'lock_bits'
p588
S'0x0F'
p589
sS'file'
p590
S'ATmegaBOOT_168_atmega328_bt.hex'
p591
sS'path'
p592
S'bt'
p593
sS'unlock_bits'
p594
S'0x3F'
p595
ssS'build'
p596
(dp597
S'core'
p598
S'arduino'
p599
sS'mcu'
p600
S'atmega328p'
p601
sS'f_cpu'
p602
S'16000000L'
p603
sS'variant'
p604
S'eightanaloginputs'
p605
ssS'name'
p606
S'Arduino BT w/ ATmega328'
p607
sS'upload'
p608
(dp609
S'speed'
p610
S'19200'
p611
sS'maximum_size'
p612
S'28672'
p613
sS'protocol'
p614
S'arduino'
p615
sS'disable_flushing'
p616
S'true'
p617
ssaa(lp618
S'bt'
p619
a(dp620
S'bootloader'
p621
(dp622
S'extended_fuses'
p623
S'0x00'
p624
sS'high_fuses'
p625
S'0xdd'
p626
sS'low_fuses'
p627
S'0xff'
p628
sS'lock_bits'
p629
S'0x0F'
p630
sS'file'
p631
S'ATmegaBOOT_168.hex'
p632
sS'path'
p633
S'bt'
p634
sS'unlock_bits'
p635
S'0x3F'
p636
ssS'build'
p637
(dp638
S'core'
p639
S'arduino'
p640
sS'mcu'
p641
S'atmega168'
p642
sS'f_cpu'
p643
S'16000000L'
p644
sS'variant'
p645
S'eightanaloginputs'
p646
ssS'name'
p647
S'Arduino BT w/ ATmega168'
p648
sS'upload'
p649
(dp650
S'speed'
p651
S'19200'
p652
sS'maximum_size'
p653
S'14336'
p654
sS'protocol'
p655
S'arduino'
p656
sS'disable_flushing'
p657
S'true'
p658
ssaa(lp659
S'lilypad328'
p660
a(dp661
S'bootloader'
p662
(dp663
S'extended_fuses'
p664
S'0x05'
p665
sS'high_fuses'
p666
S'0xDA'
p667
sS'low_fuses'
p668
S'0xFF'
p669
sS'lock_bits'
p670
S'0x0F'
p671
sS'file'
p672
S'ATmegaBOOT_168_atmega328_pro_8MHz.hex'
p673
sS'path'
p674
S'atmega'
p675
sS'unlock_bits'
p676
S'0x3F'
p677
ssS'build'
p678
(dp679
S'core'
p680
S'arduino'
p681
sS'mcu'
p682
S'atmega328p'
p683
sS'f_cpu'
p684
S'8000000L'
p685
sS'variant'
p686
S'standard'
p687
ssS'name'
p688
S'LilyPad Arduino w/ ATmega328'
p689
sS'upload'
p690
(dp691
S'speed'
p692
S'57600'
p693
sS'maximum_size'
p694
S'30720'
p695
sS'protocol'
p696
S'arduino'
p697
ssaa(lp698
S'lilypad'
p699
a(dp700
S'bootloader'
p701
(dp702
S'extended_fuses'
p703
S'0x00'
p704
sS'high_fuses'
p705
S'0xdd'
p706
sS'low_fuses'
p707
S'0xe2'
p708
sS'lock_bits'
p709
S'0x0F'
p710
sS'file'
p711
S'LilyPadBOOT_168.hex'
p712
sS'path'
p713
S'lilypad'
p714
sS'unlock_bits'
p715
S'0x3F'
p716
ssS'build'
p717
(dp718
S'core'
p719
S'arduino'
p720
sS'mcu'
p721
S'atmega168'
p722
sS'f_cpu'
p723
S'8000000L'
p724
sS'variant'
p725
S'standard'
p726
ssS'name'
p727
S'LilyPad Arduino w/ ATmega168'
p728
sS'upload'
p729
(dp730
S'speed'
p731
S'19200'
p732
sS'maximum_size'
p733
S'14336'
p734
sS'protocol'
p735
S'arduino'
p736
ssaa(lp737
S'pro5v328'
p738
a(dp739
S'bootloader'
p740
(dp741
S'extended_fuses'
p742
S'0x05'
p743
sS'high_fuses'
p744
S'0xDA'
p745
sS'low_fuses'
p746
S'0xFF'
p747
sS'lock_bits'
p748
S'0x0F'
p749
sS'file'
p750
S'ATmegaBOOT_168_atmega328.hex'
p751
sS'path'
p752
S'atmega'
p753
sS'unlock_bits'
p754
S'0x3F'
p755
ssS'build'
p756
(dp757
S'core'
p758
S'arduino'
p759
sS'mcu'
p760
S'atmega328p'
p761
sS'f_cpu'
p762
S'16000000L'
p763
sS'variant'
p764
S'standard'
p765
ssS'name'
p766
S'Arduino Pro or Pro Mini (5V, 16 MHz) w/ ATmega328'
p767
sS'upload'
p768
(dp769
S'speed'
p770
S'57600'
p771
sS'maximum_size'
p772
S'30720'
p773
sS'protocol'
p774
S'arduino'
p775
ssaa(lp776
S'pro5v'
p777
a(dp778
S'bootloader'
p779
(dp780
S'extended_fuses'
p781
S'0x00'
p782
sS'high_fuses'
p783
S'0xdd'
p784
sS'low_fuses'
p785
S'0xff'
p786
sS'lock_bits'
p787
S'0x0F'
p788
sS'file'
p789
S'ATmegaBOOT_168_diecimila.hex'
p790
sS'path'
p791
S'atmega'
p792
sS'unlock_bits'
p793
S'0x3F'
p794
ssS'build'
p795
(dp796
S'core'
p797
S'arduino'
p798
sS'mcu'
p799
S'atmega168'
p800
sS'f_cpu'
p801
S'16000000L'
p802
sS'variant'
p803
S'standard'
p804
ssS'name'
p805
S'Arduino Pro or Pro Mini (5V, 16 MHz) w/ ATmega168'
p806
sS'upload'
p807
(dp808
S'speed'
p809
S'19200'
p810
sS'maximum_size'
p811
S'14336'
p812
sS'protocol'
p813
S'arduino'
p814
ssaa(lp815
S'pro328'
p816
a(dp817
S'bootloader'
p818
(dp819
S'extended_fuses'
p820
S'0x05'
p821
sS'high_fuses'
p822
S'0xDA'
p823
sS'low_fuses'
p824
S'0xFF'
p825
sS'lock_bits'
p826
S'0x0F'
p827
sS'file'
p828
S'ATmegaBOOT_168_atmega328_pro_8MHz.hex'
p829
sS'path'
p830
S'atmega'
p831
sS'unlock_bits'
p832
S'0x3F'
p833
ssS'build'
p834
(dp835
S'core'
p836
S'arduino'
p837
sS'mcu'
p838
S'atmega328p'
p839
sS'f_cpu'
p840
S'8000000L'
p841
sS'variant'
p842
S'standard'
p843
ssS'name'
p844
S'Arduino Pro or Pro Mini (3.3V, 8 MHz) w/ ATmega328'
p845
sS'upload'
p846
(dp847
S'speed'
p848
S'57600'
p849
sS'maximum_size'
p850
S'30720'
p851
sS'protocol'
p852
S'arduino'
p853
ssaa(lp854
S'pro'
p855
a(dp856
S'bootloader'
p857
(dp858
S'extended_fuses'
p859
S'0x00'
p860
sS'high_fuses'
p861
S'0xdd'
p862
sS'low_fuses'
p863
S'0xc6'
p864
sS'lock_bits'
p865
S'0x0F'
p866
sS'file'
p867
S'ATmegaBOOT_168_pro_8MHz.hex'
p868
sS'path'
p869
S'atmega'
p870
sS'unlock_bits'
p871
S'0x3F'
p872
ssS'build'
p873
(dp874
S'core'
p875
S'arduino'
p876
sS'mcu'
p877
S'atmega168'
p878
sS'f_cpu'
p879
S'8000000L'
p880
sS'variant'
p881
S'standard'
p882
ssS'name'
p883
S'Arduino Pro or Pro Mini (3.3V, 8 MHz) w/ ATmega168'
p884
sS'upload'
p885
(dp886
S'speed'
p887
S'19200'
p888
sS'maximum_size'
p889
S'14336'
p890
sS'protocol'
p891
S'arduino'
p892
ssaa(lp893
S'atmega168'
p894
a(dp895
S'bootloader'
p896
(dp897
S'extended_fuses'
p898
S'0x00'
p899
sS'high_fuses'
p900
S'0xdd'
p901
sS'low_fuses'
p902
S'0xff'
p903
sS'lock_bits'
p904
S'0x0F'
p905
sS'file'
p906
S'ATmegaBOOT_168_ng.hex'
p907
sS'path'
p908
S'atmega'
p909
sS'unlock_bits'
p910
S'0x3F'
p911
ssS'build'
p912
(dp913
S'core'
p914
S'arduino'
p915
sS'mcu'
p916
S'atmega168'
p917
sS'f_cpu'
p918
S'16000000L'
p919
sS'variant'
p920
S'standard'
p921
ssS'name'
p922
S'Arduino NG or older w/ ATmega168'
p923
sS'upload'
p924
(dp925
S'speed'
p926
S'19200'
p927
sS'maximum_size'
p928
S'14336'
p929
sS'protocol'
p930
S'arduino'
p931
ssaa(lp932
S'atmega8'
p933
a(dp934
S'bootloader'
p935
(dp936
S'high_fuses'
p937
S'0xca'
p938
sS'low_fuses'
p939
S'0xdf'
p940
sS'lock_bits'
p941
S'0x0F'
p942
sS'file'
p943
S'ATmegaBOOT.hex'
p944
sS'path'
p945
S'atmega8'
p946
sS'unlock_bits'
p947
S'0x3F'
p948
ssS'build'
p949
(dp950
S'core'
p951
S'arduino'
p952
sS'mcu'
p953
S'atmega8'
p954
sS'f_cpu'
p955
S'16000000L'
p956
sS'variant'
p957
S'standard'
p958
ssS'name'
p959
S'Arduino NG or older w/ ATmega8'
p960
sS'upload'
p961
(dp962
S'speed'
p963
S'19200'
p964
sS'maximum_size'
p965
S'7168'
p966
sS'protocol'
p967
S'arduino'
p968
ssaatp969
Rp970
(dp971
S'default'
p972
S'uno'
p973
sbtp974
a(S'cxx'
p975
S'/usr/share/arduino/hardware/tools/avr/bin/avr-g++'
p976
tp977
a.