(lp0
(S'elfflags'
p1
ccopy_reg
_reconstructor
p2
(cino.utils
SpaceList
p3
c__builtin__
list
p4
(lp5
S'-Os'
p6
aS'-Wl,--gc-sections'
p7
aS'-mmcu=atmega328p'
p8
atp9
Rp10
tp11
a(S'cc'
p12
S'/usr/share/arduino/hardware/tools/avr/bin/avr-gcc'
p13
tp14
a(S'arduino_libraries_dir'
p15
S'/usr/share/arduino/libraries'
p16
tp17
a(S'avrdude'
p18
S'/usr/share/arduino/hardware/tools/avrdude'
p19
tp20
a(S'ar'
p21
S'/usr/share/arduino/hardware/tools/avr/bin/avr-ar'
p22
tp23
a(S'names'
p24
(dp25
S'cpp'
p26
S'%s.cpp'
p27
sS'obj'
p28
S'%s.o'
p29
sS'lib'
p30
S'lib%s.a'
p31
sS'deps'
p32
S'%s.d'
p33
stp34
a(S'arduino_lib_version'
p35
g2
(cino.environment
Version
p36
c__builtin__
tuple
p37
(I1
I0
tp38
tp39
Rp40
tp41
a(S'objcopy'
p42
S'/usr/share/arduino/hardware/tools/avr/bin/avr-objcopy'
p43
tp44
a(S'board_models'
p45
cino.environment
BoardModels
p46
((lp47
(lp48
S'uno'
p49
a(dp50
S'bootloader'
p51
(dp52
S'extended_fuses'
p53
S'0x05'
p54
sS'high_fuses'
p55
S'0xde'
p56
sS'low_fuses'
p57
S'0xff'
p58
sS'lock_bits'
p59
S'0x0F'
p60
sS'file'
p61
S'optiboot_atmega328.hex'
p62
sS'path'
p63
S'optiboot'
p64
sS'unlock_bits'
p65
S'0x3F'
p66
ssS'upload'
p67
(dp68
S'speed'
p69
S'115200'
p70
sS'maximum_size'
p71
S'32256'
p72
sS'protocol'
p73
S'arduino'
p74
ssS'name'
p75
S'Arduino Uno'
p76
sS'build'
p77
(dp78
S'core'
p79
S'arduino'
p80
sS'mcu'
p81
S'atmega328p'
p82
sS'f_cpu'
p83
S'16000000L'
p84
sS'variant'
p85
S'standard'
p86
ssaa(lp87
S'atmega328'
p88
a(dp89
S'bootloader'
p90
(dp91
S'extended_fuses'
p92
S'0x05'
p93
sS'high_fuses'
p94
S'0xDA'
p95
sS'low_fuses'
p96
S'0xFF'
p97
sS'lock_bits'
p98
S'0x0F'
p99
sS'file'
p100
S'ATmegaBOOT_168_atmega328.hex'
p101
sS'path'
p102
S'atmega'
p103
sS'unlock_bits'
p104
S'0x3F'
p105
ssS'upload'
p106
(dp107
S'speed'
p108
S'57600'
p109
sS'maximum_size'
p110
S'30720'
p111
sS'protocol'
p112
S'arduino'
p113
ssS'name'
p114
S'Arduino Duemilanove w/ ATmega328'
p115
sS'build'
p116
(dp117
S'core'
p118
S'arduino'
p119
sS'mcu'
p120
S'atmega328p'
p121
sS'f_cpu'
p122
S'16000000L'
p123
sS'variant'
p124
S'standard'
p125
ssaa(lp126
S'diecimila'
p127
a(dp128
S'bootloader'
p129
(dp130
S'extended_fuses'
p131
S'0x00'
p132
sS'high_fuses'
p133
S'0xdd'
p134
sS'low_fuses'
p135
S'0xff'
p136
sS'lock_bits'
p137
S'0x0F'
p138
sS'file'
p139
S'ATmegaBOOT_168_diecimila.hex'
p140
sS'path'
p141
S'atmega'
p142
sS'unlock_bits'
p143
S'0x3F'
p144
ssS'upload'
p145
(dp146
S'speed'
p147
S'19200'
p148
sS'maximum_size'
p149
S'14336'
p150
sS'protocol'
p151
S'arduino'
p152
ssS'name'
p153
S'Arduino Diecimila or Duemilanove w/ ATmega168'
p154
sS'build'
p155
(dp156
S'core'
p157
S'arduino'
p158
sS'mcu'
p159
S'atmega168'
p160
sS'f_cpu'
p161
S'16000000L'
p162
sS'variant'
p163
S'standard'
p164
ssaa(lp165
S'nano328'
p166
a(dp167
S'bootloader'
p168
(dp169
S'extended_fuses'
p170
S'0x05'
p171
sS'high_fuses'
p172
S'0xDA'
p173
sS'low_fuses'
p174
S'0xFF'
p175
sS'lock_bits'
p176
S'0x0F'
p177
sS'file'
p178
S'ATmegaBOOT_168_atmega328.hex'
p179
sS'path'
p180
S'atmega'
p181
sS'unlock_bits'
p182
S'0x3F'
p183
ssS'upload'
p184
(dp185
S'speed'
p186
S'57600'
p187
sS'maximum_size'
p188
S'30720'
p189
sS'protocol'
p190
S'arduino'
p191
ssS'name'
p192
S'Arduino Nano w/ ATmega328'
p193
sS'build'
p194
(dp195
S'core'
p196
S'arduino'
p197
sS'mcu'
p198
S'atmega328p'
p199
sS'f_cpu'
p200
S'16000000L'
p201
sS'variant'
p202
S'eightanaloginputs'
p203
ssaa(lp204
S'nano'
p205
a(dp206
S'bootloader'
p207
(dp208
S'extended_fuses'
p209
S'0x00'
p210
sS'high_fuses'
p211
S'0xdd'
p212
sS'low_fuses'
p213
S'0xff'
p214
sS'lock_bits'
p215
S'0x0F'
p216
sS'file'
p217
S'ATmegaBOOT_168_diecimila.hex'
p218
sS'path'
p219
S'atmega'
p220
sS'unlock_bits'
p221
S'0x3F'
p222
ssS'upload'
p223
(dp224
S'speed'
p225
S'19200'
p226
sS'maximum_size'
p227
S'14336'
p228
sS'protocol'
p229
S'arduino'
p230
ssS'name'
p231
S'Arduino Nano w/ ATmega168'
p232
sS'build'
p233
(dp234
S'core'
p235
S'arduino'
p236
sS'mcu'
p237
S'atmega168'
p238
sS'f_cpu'
p239
S'16000000L'
p240
sS'variant'
p241
S'eightanaloginputs'
p242
ssaa(lp243
S'mega2560'
p244
a(dp245
S'bootloader'
p246
(dp247
S'extended_fuses'
p248
S'0xFD'
p249
sS'high_fuses'
p250
S'0xD8'
p251
sS'low_fuses'
p252
S'0xFF'
p253
sS'lock_bits'
p254
S'0x0F'
p255
sS'file'
p256
S'stk500boot_v2_mega2560.hex'
p257
sS'path'
p258
S'stk500v2'
p259
sS'unlock_bits'
p260
S'0x3F'
p261
ssS'upload'
p262
(dp263
S'speed'
p264
S'115200'
p265
sS'maximum_size'
p266
S'258048'
p267
sS'protocol'
p268
S'stk500v2'
p269
ssS'name'
p270
S'Arduino Mega 2560 or Mega ADK'
p271
sS'build'
p272
(dp273
S'core'
p274
S'arduino'
p275
sS'mcu'
p276
S'atmega2560'
p277
sS'f_cpu'
p278
S'16000000L'
p279
sS'variant'
p280
S'mega'
p281
ssaa(lp282
S'mega'
p283
a(dp284
S'bootloader'
p285
(dp286
S'extended_fuses'
p287
S'0xF5'
p288
sS'high_fuses'
p289
S'0xDA'
p290
sS'low_fuses'
p291
S'0xFF'
p292
sS'lock_bits'
p293
S'0x0F'
p294
sS'file'
p295
S'ATmegaBOOT_168_atmega1280.hex'
p296
sS'path'
p297
S'atmega'
p298
sS'unlock_bits'
p299
S'0x3F'
p300
ssS'upload'
p301
(dp302
S'speed'
p303
S'57600'
p304
sS'maximum_size'
p305
S'126976'
p306
sS'protocol'
p307
S'arduino'
p308
ssS'name'
p309
S'Arduino Mega (ATmega1280)'
p310
sS'build'
p311
(dp312
S'core'
p313
S'arduino'
p314
sS'mcu'
p315
S'atmega1280'
p316
sS'f_cpu'
p317
S'16000000L'
p318
sS'variant'
p319
S'mega'
p320
ssaa(lp321
S'leonardo'
p322
a(dp323
S'bootloader'
p324
(dp325
S'extended_fuses'
p326
S'0xcb'
p327
sS'high_fuses'
p328
S'0xd8'
p329
sS'low_fuses'
p330
S'0xff'
p331
sS'lock_bits'
p332
S'0x2F'
p333
sS'file'
p334
S'Caterina-Leonardo.hex'
p335
sS'path'
p336
S'caterina'
p337
sS'unlock_bits'
p338
S'0x3F'
p339
ssS'upload'
p340
(dp341
S'speed'
p342
S'57600'
p343
sS'maximum_size'
p344
S'28672'
p345
sS'protocol'
p346
S'avr109'
p347
sS'disable_flushing'
p348
S'true'
p349
ssS'name'
p350
S'Arduino Leonardo'
p351
sS'build'
p352
(dp353
S'core'
p354
S'arduino'
p355
sS'f_cpu'
p356
S'16000000L'
p357
sS'vid'
p358
S'0x2341'
p359
sS'pid'
p360
S'0x8036'
p361
sS'variant'
p362
S'leonardo'
p363
sS'mcu'
p364
S'atmega32u4'
p365
ssaa(lp366
S'mini328'
p367
a(dp368
S'bootloader'
p369
(dp370
S'extended_fuses'
p371
S'0x05'
p372
sS'high_fuses'
p373
S'0xd8'
p374
sS'low_fuses'
p375
S'0xff'
p376
sS'lock_bits'
p377
S'0x0F'
p378
sS'file'
p379
S'optiboot_atmega328-Mini.hex'
p380
sS'path'
p381
S'optiboot'
p382
sS'unlock_bits'
p383
S'0x3F'
p384
ssS'upload'
p385
(dp386
S'speed'
p387
S'115200'
p388
sS'maximum_size'
p389
S'28672'
p390
sS'protocol'
p391
S'arduino'
p392
ssS'name'
p393
S'Arduino Mini w/ ATmega328'
p394
sS'build'
p395
(dp396
S'core'
p397
S'arduino'
p398
sS'mcu'
p399
S'atmega328p'
p400
sS'f_cpu'
p401
S'16000000L'
p402
sS'variant'
p403
S'eightanaloginputs'
p404
ssaa(lp405
S'mini'
p406
a(dp407
S'bootloader'
p408
(dp409
S'extended_fuses'
p410
S'0x00'
p411
sS'high_fuses'
p412
S'0xdd'
p413
sS'low_fuses'
p414
S'0xff'
p415
sS'lock_bits'
p416
S'0x0F'
p417
sS'file'
p418
S'ATmegaBOOT_168_ng.hex'
p419
sS'path'
p420
S'atmega'
p421
sS'unlock_bits'
p422
S'0x3F'
p423
ssS'upload'
p424
(dp425
S'speed'
p426
S'19200'
p427
sS'maximum_size'
p428
S'14336'
p429
sS'protocol'
p430
S'arduino'
p431
ssS'name'
p432
S'Arduino Mini w/ ATmega168'
p433
sS'build'
p434
(dp435
S'core'
p436
S'arduino'
p437
sS'mcu'
p438
S'atmega168'
p439
sS'f_cpu'
p440
S'16000000L'
p441
sS'variant'
p442
S'eightanaloginputs'
p443
ssaa(lp444
S'ethernet'
p445
a(dp446
S'bootloader'
p447
(dp448
S'extended_fuses'
p449
S'0x05'
p450
sS'high_fuses'
p451
S'0xde'
p452
sS'low_fuses'
p453
S'0xff'
p454
sS'lock_bits'
p455
S'0x0F'
p456
sS'file'
p457
S'optiboot_atmega328.hex'
p458
sS'path'
p459
S'optiboot'
p460
sS'unlock_bits'
p461
S'0x3F'
p462
ssS'upload'
p463
(dp464
S'speed'
p465
S'115200'
p466
sS'maximum_size'
p467
S'32256'
p468
sS'protocol'
p469
S'arduino'
p470
ssS'name'
p471
S'Arduino Ethernet'
p472
sS'build'
p473
(dp474
S'f_cpu'
p475
S'16000000L'
p476
sS'mcu'
p477
S'atmega328p'
p478
sS'variant'
p479
S'standard'
p480
sS'core'
p481
S'arduino'
p482
ssaa(lp483
S'fio'
p484
a(dp485
S'bootloader'
p486
(dp487
S'extended_fuses'
p488
S'0x05'
p489
sS'high_fuses'
p490
S'0xDA'
p491
sS'low_fuses'
p492
S'0xFF'
p493
sS'lock_bits'
p494
S'0x0F'
p495
sS'file'
p496
S'ATmegaBOOT_168_atmega328_pro_8MHz.hex'
p497
sS'path'
p498
S'arduino:atmega'
p499
sS'unlock_bits'
p500
S'0x3F'
p501
ssS'upload'
p502
(dp503
S'speed'
p504
S'57600'
p505
sS'maximum_size'
p506
S'30720'
p507
sS'protocol'
p508
S'arduino'
p509
ssS'name'
p510
S'Arduino Fio'
p511
sS'build'
p512
(dp513
S'core'
p514
S'arduino'
p515
sS'mcu'
p516
S'atmega328p'
p517
sS'f_cpu'
p518
S'8000000L'
p519
sS'variant'
p520
S'eightanaloginputs'
p521
ssaa(lp522
S'bt328'
p523
a(dp524
S'bootloader'
p525
(dp526
S'extended_fuses'
p527
S'0x05'
p528
sS'high_fuses'
p529
S'0xd8'
p530
sS'low_fuses'
p531
S'0xff'
p532
sS'lock_bits'
p533
S'0x0F'
p534
sS'file'
p535
S'ATmegaBOOT_168_atmega328_bt.hex'
p536
sS'path'
p537
S'bt'
p538
sS'unlock_bits'
p539
S'0x3F'
p540
ssS'upload'
p541
(dp542
S'speed'
p543
S'19200'
p544
sS'maximum_size'
p545
S'28672'
p546
sS'protocol'
p547
S'arduino'
p548
sS'disable_flushing'
p549
S'true'
p550
ssS'name'
p551
S'Arduino BT w/ ATmega328'
p552
sS'build'
p553
(dp554
S'core'
p555
S'arduino'
p556
sS'mcu'
p557
S'atmega328p'
p558
sS'f_cpu'
p559
S'16000000L'
p560
sS'variant'
p561
S'eightanaloginputs'
p562
ssaa(lp563
S'bt'
p564
a(dp565
S'bootloader'
p566
(dp567
S'extended_fuses'
p568
S'0x00'
p569
sS'high_fuses'
p570
S'0xdd'
p571
sS'low_fuses'
p572
S'0xff'
p573
sS'lock_bits'
p574
S'0x0F'
p575
sS'file'
p576
S'ATmegaBOOT_168.hex'
p577
sS'path'
p578
S'bt'
p579
sS'unlock_bits'
p580
S'0x3F'
p581
ssS'upload'
p582
(dp583
S'speed'
p584
S'19200'
p585
sS'maximum_size'
p586
S'14336'
p587
sS'protocol'
p588
S'arduino'
p589
sS'disable_flushing'
p590
S'true'
p591
ssS'name'
p592
S'Arduino BT w/ ATmega168'
p593
sS'build'
p594
(dp595
S'core'
p596
S'arduino'
p597
sS'mcu'
p598
S'atmega168'
p599
sS'f_cpu'
p600
S'16000000L'
p601
sS'variant'
p602
S'eightanaloginputs'
p603
ssaa(lp604
S'lilypad328'
p605
a(dp606
S'bootloader'
p607
(dp608
S'extended_fuses'
p609
S'0x05'
p610
sS'high_fuses'
p611
S'0xDA'
p612
sS'low_fuses'
p613
S'0xFF'
p614
sS'lock_bits'
p615
S'0x0F'
p616
sS'file'
p617
S'ATmegaBOOT_168_atmega328_pro_8MHz.hex'
p618
sS'path'
p619
S'atmega'
p620
sS'unlock_bits'
p621
S'0x3F'
p622
ssS'upload'
p623
(dp624
S'speed'
p625
S'57600'
p626
sS'maximum_size'
p627
S'30720'
p628
sS'protocol'
p629
S'arduino'
p630
ssS'name'
p631
S'LilyPad Arduino w/ ATmega328'
p632
sS'build'
p633
(dp634
S'core'
p635
S'arduino'
p636
sS'mcu'
p637
S'atmega328p'
p638
sS'f_cpu'
p639
S'8000000L'
p640
sS'variant'
p641
S'standard'
p642
ssaa(lp643
S'lilypad'
p644
a(dp645
S'bootloader'
p646
(dp647
S'extended_fuses'
p648
S'0x00'
p649
sS'high_fuses'
p650
S'0xdd'
p651
sS'low_fuses'
p652
S'0xe2'
p653
sS'lock_bits'
p654
S'0x0F'
p655
sS'file'
p656
S'LilyPadBOOT_168.hex'
p657
sS'path'
p658
S'lilypad'
p659
sS'unlock_bits'
p660
S'0x3F'
p661
ssS'upload'
p662
(dp663
S'speed'
p664
S'19200'
p665
sS'maximum_size'
p666
S'14336'
p667
sS'protocol'
p668
S'arduino'
p669
ssS'name'
p670
S'LilyPad Arduino w/ ATmega168'
p671
sS'build'
p672
(dp673
S'core'
p674
S'arduino'
p675
sS'mcu'
p676
S'atmega168'
p677
sS'f_cpu'
p678
S'8000000L'
p679
sS'variant'
p680
S'standard'
p681
ssaa(lp682
S'pro5v328'
p683
a(dp684
S'bootloader'
p685
(dp686
S'extended_fuses'
p687
S'0x05'
p688
sS'high_fuses'
p689
S'0xDA'
p690
sS'low_fuses'
p691
S'0xFF'
p692
sS'lock_bits'
p693
S'0x0F'
p694
sS'file'
p695
S'ATmegaBOOT_168_atmega328.hex'
p696
sS'path'
p697
S'atmega'
p698
sS'unlock_bits'
p699
S'0x3F'
p700
ssS'upload'
p701
(dp702
S'speed'
p703
S'57600'
p704
sS'maximum_size'
p705
S'30720'
p706
sS'protocol'
p707
S'arduino'
p708
ssS'name'
p709
S'Arduino Pro or Pro Mini (5V, 16 MHz) w/ ATmega328'
p710
sS'build'
p711
(dp712
S'core'
p713
S'arduino'
p714
sS'mcu'
p715
S'atmega328p'
p716
sS'f_cpu'
p717
S'16000000L'
p718
sS'variant'
p719
S'standard'
p720
ssaa(lp721
S'pro5v'
p722
a(dp723
S'bootloader'
p724
(dp725
S'extended_fuses'
p726
S'0x00'
p727
sS'high_fuses'
p728
S'0xdd'
p729
sS'low_fuses'
p730
S'0xff'
p731
sS'lock_bits'
p732
S'0x0F'
p733
sS'file'
p734
S'ATmegaBOOT_168_diecimila.hex'
p735
sS'path'
p736
S'atmega'
p737
sS'unlock_bits'
p738
S'0x3F'
p739
ssS'upload'
p740
(dp741
S'speed'
p742
S'19200'
p743
sS'maximum_size'
p744
S'14336'
p745
sS'protocol'
p746
S'arduino'
p747
ssS'name'
p748
S'Arduino Pro or Pro Mini (5V, 16 MHz) w/ ATmega168'
p749
sS'build'
p750
(dp751
S'core'
p752
S'arduino'
p753
sS'mcu'
p754
S'atmega168'
p755
sS'f_cpu'
p756
S'16000000L'
p757
sS'variant'
p758
S'standard'
p759
ssaa(lp760
S'pro328'
p761
a(dp762
S'bootloader'
p763
(dp764
S'extended_fuses'
p765
S'0x05'
p766
sS'high_fuses'
p767
S'0xDA'
p768
sS'low_fuses'
p769
S'0xFF'
p770
sS'lock_bits'
p771
S'0x0F'
p772
sS'file'
p773
S'ATmegaBOOT_168_atmega328_pro_8MHz.hex'
p774
sS'path'
p775
S'atmega'
p776
sS'unlock_bits'
p777
S'0x3F'
p778
ssS'upload'
p779
(dp780
S'speed'
p781
S'57600'
p782
sS'maximum_size'
p783
S'30720'
p784
sS'protocol'
p785
S'arduino'
p786
ssS'name'
p787
S'Arduino Pro or Pro Mini (3.3V, 8 MHz) w/ ATmega328'
p788
sS'build'
p789
(dp790
S'core'
p791
S'arduino'
p792
sS'mcu'
p793
S'atmega328p'
p794
sS'f_cpu'
p795
S'8000000L'
p796
sS'variant'
p797
S'standard'
p798
ssaa(lp799
S'pro'
p800
a(dp801
S'bootloader'
p802
(dp803
S'extended_fuses'
p804
S'0x00'
p805
sS'high_fuses'
p806
S'0xdd'
p807
sS'low_fuses'
p808
S'0xc6'
p809
sS'lock_bits'
p810
S'0x0F'
p811
sS'file'
p812
S'ATmegaBOOT_168_pro_8MHz.hex'
p813
sS'path'
p814
S'atmega'
p815
sS'unlock_bits'
p816
S'0x3F'
p817
ssS'upload'
p818
(dp819
S'speed'
p820
S'19200'
p821
sS'maximum_size'
p822
S'14336'
p823
sS'protocol'
p824
S'arduino'
p825
ssS'name'
p826
S'Arduino Pro or Pro Mini (3.3V, 8 MHz) w/ ATmega168'
p827
sS'build'
p828
(dp829
S'core'
p830
S'arduino'
p831
sS'mcu'
p832
S'atmega168'
p833
sS'f_cpu'
p834
S'8000000L'
p835
sS'variant'
p836
S'standard'
p837
ssaa(lp838
S'atmega168'
p839
a(dp840
S'bootloader'
p841
(dp842
S'extended_fuses'
p843
S'0x00'
p844
sS'high_fuses'
p845
S'0xdd'
p846
sS'low_fuses'
p847
S'0xff'
p848
sS'lock_bits'
p849
S'0x0F'
p850
sS'file'
p851
S'ATmegaBOOT_168_ng.hex'
p852
sS'path'
p853
S'atmega'
p854
sS'unlock_bits'
p855
S'0x3F'
p856
ssS'upload'
p857
(dp858
S'speed'
p859
S'19200'
p860
sS'maximum_size'
p861
S'14336'
p862
sS'protocol'
p863
S'arduino'
p864
ssS'name'
p865
S'Arduino NG or older w/ ATmega168'
p866
sS'build'
p867
(dp868
S'core'
p869
S'arduino'
p870
sS'mcu'
p871
S'atmega168'
p872
sS'f_cpu'
p873
S'16000000L'
p874
sS'variant'
p875
S'standard'
p876
ssaa(lp877
S'atmega8'
p878
a(dp879
S'bootloader'
p880
(dp881
S'high_fuses'
p882
S'0xca'
p883
sS'low_fuses'
p884
S'0xdf'
p885
sS'lock_bits'
p886
S'0x0F'
p887
sS'file'
p888
S'ATmegaBOOT.hex'
p889
sS'path'
p890
S'atmega8'
p891
sS'unlock_bits'
p892
S'0x3F'
p893
ssS'upload'
p894
(dp895
S'speed'
p896
S'19200'
p897
sS'maximum_size'
p898
S'7168'
p899
sS'protocol'
p900
S'arduino'
p901
ssS'name'
p902
S'Arduino NG or older w/ ATmega8'
p903
sS'build'
p904
(dp905
S'core'
p906
S'arduino'
p907
sS'mcu'
p908
S'atmega8'
p909
sS'f_cpu'
p910
S'16000000L'
p911
sS'variant'
p912
S'standard'
p913
ssaatp914
Rp915
(dp916
S'default'
p917
S'uno'
p918
sbtp919
a(S'used_libs'
p920
(lp921
S'/usr/share/arduino/libraries/Wire'
p922
aS'/usr/share/arduino/hardware/arduino/cores/arduino'
p923
atp924
a(S'build_dir'
p925
S'.build/atmega328'
p926
tp927
a(S'cxx'
p928
S'/usr/share/arduino/hardware/tools/avr/bin/avr-g++'
p929
tp930
a(S'cflags'
p931
g2
(g3
g4
(lp932
g8
aS'-ffunction-sections'
p933
aS'-fdata-sections'
p934
aS'-g'
p935
ag6
aS'-w'
p936
aS'-DF_CPU=16000000L'
p937
aS'-DARDUINO=100'
p938
aS'-I/usr/share/arduino/hardware/arduino/cores/arduino'
p939
aS'-I/usr/share/arduino/hardware/arduino/variants/standard'
p940
aS'-I/usr/share/arduino/libraries/Wire'
p941
aS'-I/usr/share/arduino/libraries/Wire/utility'
p942
aS'-I/usr/share/arduino/hardware/arduino/cores/arduino'
p943
atp944
Rp945
tp946
a(S'cxxflags'
p947
g2
(g3
g4
(lp948
S'-fno-exceptions'
p949
atp950
Rp951
tp952
a(S'arduino_variants_dir'
p953
S'/usr/share/arduino/hardware/arduino/variants'
p954
tp955
a(S'serial'
p956
S'/usr/bin/picocom'
p957
tp958
a(S'stty'
p959
S'/usr/bin/stty'
p960
tp961
a(S'version.txt'
p962
S'/usr/share/arduino/lib/version.txt'
p963
tp964
a(S'arduino_core_dir'
p965
g923
tp966
a(S'boards.txt'
p967
S'/usr/share/arduino/hardware/arduino/boards.txt'
p968
tp969
a(S'avrdude.conf'
p970
S'/usr/share/arduino/hardware/tools/avrdude.conf'
p971
tp972
a(S'deps'
p973
g2
(g3
g4
(lp974
S'.build/atmega328/src/dependencies.d'
p975
aS'.build/atmega328/arduino/dependencies.d'
p976
aS'.build/atmega328/Wire/dependencies.d'
p977
atp978
Rp979
tp980
a.