(lp0
(S'avrdude'
p1
S'/usr/share/arduino/hardware/tools/avrdude'
p2
tp3
a(S'elfflags'
p4
ccopy_reg
_reconstructor
p5
(cino.utils
SpaceList
p6
c__builtin__
list
p7
(lp8
S'-Os'
p9
aS'-Wl,--gc-sections'
p10
aS'-mmcu=atmega328p'
p11
atp12
Rp13
tp14
a(S'version.txt'
p15
S'/usr/share/arduino/lib/version.txt'
p16
tp17
a(S'used_libs'
p18
(lp19
S'/usr/share/arduino/libraries/Wire'
p20
aS'/usr/share/arduino/hardware/arduino/cores/arduino'
p21
atp22
a(S'cc'
p23
S'/usr/share/arduino/hardware/tools/avr/bin/avr-gcc'
p24
tp25
a(S'stty'
p26
S'/usr/bin/stty'
p27
tp28
a(S'avrdude.conf'
p29
S'/usr/share/arduino/hardware/tools/avrdude.conf'
p30
tp31
a(S'build_dir'
p32
S'.build/atmega328'
p33
tp34
a(S'arduino_core_dir'
p35
g21
tp36
a(S'boards.txt'
p37
S'/usr/share/arduino/hardware/arduino/boards.txt'
p38
tp39
a(S'cxxflags'
p40
g5
(g6
g7
(lp41
S'-fno-exceptions'
p42
atp43
Rp44
tp45
a(S'arduino_variants_dir'
p46
S'/usr/share/arduino/hardware/arduino/variants'
p47
tp48
a(S'deps'
p49
g5
(g6
g7
(lp50
S'.build/atmega328/src/dependencies.d'
p51
aS'.build/atmega328/arduino/dependencies.d'
p52
aS'.build/atmega328/Wire/dependencies.d'
p53
atp54
Rp55
tp56
a(S'ar'
p57
S'/usr/share/arduino/hardware/tools/avr/bin/avr-ar'
p58
tp59
a(S'names'
p60
(dp61
S'cpp'
p62
S'%s.cpp'
p63
sS'obj'
p64
S'%s.o'
p65
sS'lib'
p66
S'lib%s.a'
p67
sS'deps'
p68
S'%s.d'
p69
stp70
a(S'cflags'
p71
g5
(g6
g7
(lp72
g11
aS'-ffunction-sections'
p73
aS'-fdata-sections'
p74
aS'-g'
p75
ag9
aS'-w'
p76
aS'-DF_CPU=16000000L'
p77
aS'-DARDUINO=100'
p78
aS'-I/usr/share/arduino/hardware/arduino/cores/arduino'
p79
aS'-I/usr/share/arduino/hardware/arduino/variants/standard'
p80
aS'-I/usr/share/arduino/libraries/Wire'
p81
aS'-I/usr/share/arduino/libraries/Wire/utility'
p82
aS'-I/usr/share/arduino/hardware/arduino/cores/arduino'
p83
atp84
Rp85
tp86
a(S'arduino_libraries_dir'
p87
S'/usr/share/arduino/libraries'
p88
tp89
a(S'arduino_lib_version'
p90
g5
(cino.environment
Version
p91
c__builtin__
tuple
p92
(I1
I0
tp93
tp94
Rp95
tp96
a(S'objcopy'
p97
S'/usr/share/arduino/hardware/tools/avr/bin/avr-objcopy'
p98
tp99
a(S'board_models'
p100
cino.environment
BoardModels
p101
((lp102
(lp103
S'uno'
p104
a(dp105
S'bootloader'
p106
(dp107
S'extended_fuses'
p108
S'0x05'
p109
sS'high_fuses'
p110
S'0xde'
p111
sS'low_fuses'
p112
S'0xff'
p113
sS'lock_bits'
p114
S'0x0F'
p115
sS'file'
p116
S'optiboot_atmega328.hex'
p117
sS'path'
p118
S'optiboot'
p119
sS'unlock_bits'
p120
S'0x3F'
p121
ssS'upload'
p122
(dp123
S'speed'
p124
S'115200'
p125
sS'maximum_size'
p126
S'32256'
p127
sS'protocol'
p128
S'arduino'
p129
ssS'name'
p130
S'Arduino Uno'
p131
sS'build'
p132
(dp133
S'core'
p134
S'arduino'
p135
sS'mcu'
p136
S'atmega328p'
p137
sS'f_cpu'
p138
S'16000000L'
p139
sS'variant'
p140
S'standard'
p141
ssaa(lp142
S'atmega328'
p143
a(dp144
S'bootloader'
p145
(dp146
S'extended_fuses'
p147
S'0x05'
p148
sS'high_fuses'
p149
S'0xDA'
p150
sS'low_fuses'
p151
S'0xFF'
p152
sS'lock_bits'
p153
S'0x0F'
p154
sS'file'
p155
S'ATmegaBOOT_168_atmega328.hex'
p156
sS'path'
p157
S'atmega'
p158
sS'unlock_bits'
p159
S'0x3F'
p160
ssS'upload'
p161
(dp162
S'speed'
p163
S'57600'
p164
sS'maximum_size'
p165
S'30720'
p166
sS'protocol'
p167
S'arduino'
p168
ssS'name'
p169
S'Arduino Duemilanove w/ ATmega328'
p170
sS'build'
p171
(dp172
S'core'
p173
S'arduino'
p174
sS'mcu'
p175
S'atmega328p'
p176
sS'f_cpu'
p177
S'16000000L'
p178
sS'variant'
p179
S'standard'
p180
ssaa(lp181
S'diecimila'
p182
a(dp183
S'bootloader'
p184
(dp185
S'extended_fuses'
p186
S'0x00'
p187
sS'high_fuses'
p188
S'0xdd'
p189
sS'low_fuses'
p190
S'0xff'
p191
sS'lock_bits'
p192
S'0x0F'
p193
sS'file'
p194
S'ATmegaBOOT_168_diecimila.hex'
p195
sS'path'
p196
S'atmega'
p197
sS'unlock_bits'
p198
S'0x3F'
p199
ssS'upload'
p200
(dp201
S'speed'
p202
S'19200'
p203
sS'maximum_size'
p204
S'14336'
p205
sS'protocol'
p206
S'arduino'
p207
ssS'name'
p208
S'Arduino Diecimila or Duemilanove w/ ATmega168'
p209
sS'build'
p210
(dp211
S'core'
p212
S'arduino'
p213
sS'mcu'
p214
S'atmega168'
p215
sS'f_cpu'
p216
S'16000000L'
p217
sS'variant'
p218
S'standard'
p219
ssaa(lp220
S'nano328'
p221
a(dp222
S'bootloader'
p223
(dp224
S'extended_fuses'
p225
S'0x05'
p226
sS'high_fuses'
p227
S'0xDA'
p228
sS'low_fuses'
p229
S'0xFF'
p230
sS'lock_bits'
p231
S'0x0F'
p232
sS'file'
p233
S'ATmegaBOOT_168_atmega328.hex'
p234
sS'path'
p235
S'atmega'
p236
sS'unlock_bits'
p237
S'0x3F'
p238
ssS'upload'
p239
(dp240
S'speed'
p241
S'57600'
p242
sS'maximum_size'
p243
S'30720'
p244
sS'protocol'
p245
S'arduino'
p246
ssS'name'
p247
S'Arduino Nano w/ ATmega328'
p248
sS'build'
p249
(dp250
S'core'
p251
S'arduino'
p252
sS'mcu'
p253
S'atmega328p'
p254
sS'f_cpu'
p255
S'16000000L'
p256
sS'variant'
p257
S'eightanaloginputs'
p258
ssaa(lp259
S'nano'
p260
a(dp261
S'bootloader'
p262
(dp263
S'extended_fuses'
p264
S'0x00'
p265
sS'high_fuses'
p266
S'0xdd'
p267
sS'low_fuses'
p268
S'0xff'
p269
sS'lock_bits'
p270
S'0x0F'
p271
sS'file'
p272
S'ATmegaBOOT_168_diecimila.hex'
p273
sS'path'
p274
S'atmega'
p275
sS'unlock_bits'
p276
S'0x3F'
p277
ssS'upload'
p278
(dp279
S'speed'
p280
S'19200'
p281
sS'maximum_size'
p282
S'14336'
p283
sS'protocol'
p284
S'arduino'
p285
ssS'name'
p286
S'Arduino Nano w/ ATmega168'
p287
sS'build'
p288
(dp289
S'core'
p290
S'arduino'
p291
sS'mcu'
p292
S'atmega168'
p293
sS'f_cpu'
p294
S'16000000L'
p295
sS'variant'
p296
S'eightanaloginputs'
p297
ssaa(lp298
S'mega2560'
p299
a(dp300
S'bootloader'
p301
(dp302
S'extended_fuses'
p303
S'0xFD'
p304
sS'high_fuses'
p305
S'0xD8'
p306
sS'low_fuses'
p307
S'0xFF'
p308
sS'lock_bits'
p309
S'0x0F'
p310
sS'file'
p311
S'stk500boot_v2_mega2560.hex'
p312
sS'path'
p313
S'stk500v2'
p314
sS'unlock_bits'
p315
S'0x3F'
p316
ssS'upload'
p317
(dp318
S'speed'
p319
S'115200'
p320
sS'maximum_size'
p321
S'258048'
p322
sS'protocol'
p323
S'stk500v2'
p324
ssS'name'
p325
S'Arduino Mega 2560 or Mega ADK'
p326
sS'build'
p327
(dp328
S'core'
p329
S'arduino'
p330
sS'mcu'
p331
S'atmega2560'
p332
sS'f_cpu'
p333
S'16000000L'
p334
sS'variant'
p335
S'mega'
p336
ssaa(lp337
S'mega'
p338
a(dp339
S'bootloader'
p340
(dp341
S'extended_fuses'
p342
S'0xF5'
p343
sS'high_fuses'
p344
S'0xDA'
p345
sS'low_fuses'
p346
S'0xFF'
p347
sS'lock_bits'
p348
S'0x0F'
p349
sS'file'
p350
S'ATmegaBOOT_168_atmega1280.hex'
p351
sS'path'
p352
S'atmega'
p353
sS'unlock_bits'
p354
S'0x3F'
p355
ssS'upload'
p356
(dp357
S'speed'
p358
S'57600'
p359
sS'maximum_size'
p360
S'126976'
p361
sS'protocol'
p362
S'arduino'
p363
ssS'name'
p364
S'Arduino Mega (ATmega1280)'
p365
sS'build'
p366
(dp367
S'core'
p368
S'arduino'
p369
sS'mcu'
p370
S'atmega1280'
p371
sS'f_cpu'
p372
S'16000000L'
p373
sS'variant'
p374
S'mega'
p375
ssaa(lp376
S'leonardo'
p377
a(dp378
S'bootloader'
p379
(dp380
S'extended_fuses'
p381
S'0xcb'
p382
sS'high_fuses'
p383
S'0xd8'
p384
sS'low_fuses'
p385
S'0xff'
p386
sS'lock_bits'
p387
S'0x2F'
p388
sS'file'
p389
S'Caterina-Leonardo.hex'
p390
sS'path'
p391
S'caterina'
p392
sS'unlock_bits'
p393
S'0x3F'
p394
ssS'upload'
p395
(dp396
S'speed'
p397
S'57600'
p398
sS'maximum_size'
p399
S'28672'
p400
sS'protocol'
p401
S'avr109'
p402
sS'disable_flushing'
p403
S'true'
p404
ssS'name'
p405
S'Arduino Leonardo'
p406
sS'build'
p407
(dp408
S'core'
p409
S'arduino'
p410
sS'f_cpu'
p411
S'16000000L'
p412
sS'vid'
p413
S'0x2341'
p414
sS'pid'
p415
S'0x8036'
p416
sS'variant'
p417
S'leonardo'
p418
sS'mcu'
p419
S'atmega32u4'
p420
ssaa(lp421
S'mini328'
p422
a(dp423
S'bootloader'
p424
(dp425
S'extended_fuses'
p426
S'0x05'
p427
sS'high_fuses'
p428
S'0xd8'
p429
sS'low_fuses'
p430
S'0xff'
p431
sS'lock_bits'
p432
S'0x0F'
p433
sS'file'
p434
S'optiboot_atmega328-Mini.hex'
p435
sS'path'
p436
S'optiboot'
p437
sS'unlock_bits'
p438
S'0x3F'
p439
ssS'upload'
p440
(dp441
S'speed'
p442
S'115200'
p443
sS'maximum_size'
p444
S'28672'
p445
sS'protocol'
p446
S'arduino'
p447
ssS'name'
p448
S'Arduino Mini w/ ATmega328'
p449
sS'build'
p450
(dp451
S'core'
p452
S'arduino'
p453
sS'mcu'
p454
S'atmega328p'
p455
sS'f_cpu'
p456
S'16000000L'
p457
sS'variant'
p458
S'eightanaloginputs'
p459
ssaa(lp460
S'mini'
p461
a(dp462
S'bootloader'
p463
(dp464
S'extended_fuses'
p465
S'0x00'
p466
sS'high_fuses'
p467
S'0xdd'
p468
sS'low_fuses'
p469
S'0xff'
p470
sS'lock_bits'
p471
S'0x0F'
p472
sS'file'
p473
S'ATmegaBOOT_168_ng.hex'
p474
sS'path'
p475
S'atmega'
p476
sS'unlock_bits'
p477
S'0x3F'
p478
ssS'upload'
p479
(dp480
S'speed'
p481
S'19200'
p482
sS'maximum_size'
p483
S'14336'
p484
sS'protocol'
p485
S'arduino'
p486
ssS'name'
p487
S'Arduino Mini w/ ATmega168'
p488
sS'build'
p489
(dp490
S'core'
p491
S'arduino'
p492
sS'mcu'
p493
S'atmega168'
p494
sS'f_cpu'
p495
S'16000000L'
p496
sS'variant'
p497
S'eightanaloginputs'
p498
ssaa(lp499
S'ethernet'
p500
a(dp501
S'bootloader'
p502
(dp503
S'extended_fuses'
p504
S'0x05'
p505
sS'high_fuses'
p506
S'0xde'
p507
sS'low_fuses'
p508
S'0xff'
p509
sS'lock_bits'
p510
S'0x0F'
p511
sS'file'
p512
S'optiboot_atmega328.hex'
p513
sS'path'
p514
S'optiboot'
p515
sS'unlock_bits'
p516
S'0x3F'
p517
ssS'upload'
p518
(dp519
S'speed'
p520
S'115200'
p521
sS'maximum_size'
p522
S'32256'
p523
sS'protocol'
p524
S'arduino'
p525
ssS'name'
p526
S'Arduino Ethernet'
p527
sS'build'
p528
(dp529
S'f_cpu'
p530
S'16000000L'
p531
sS'mcu'
p532
S'atmega328p'
p533
sS'variant'
p534
S'standard'
p535
sS'core'
p536
S'arduino'
p537
ssaa(lp538
S'fio'
p539
a(dp540
S'bootloader'
p541
(dp542
S'extended_fuses'
p543
S'0x05'
p544
sS'high_fuses'
p545
S'0xDA'
p546
sS'low_fuses'
p547
S'0xFF'
p548
sS'lock_bits'
p549
S'0x0F'
p550
sS'file'
p551
S'ATmegaBOOT_168_atmega328_pro_8MHz.hex'
p552
sS'path'
p553
S'arduino:atmega'
p554
sS'unlock_bits'
p555
S'0x3F'
p556
ssS'upload'
p557
(dp558
S'speed'
p559
S'57600'
p560
sS'maximum_size'
p561
S'30720'
p562
sS'protocol'
p563
S'arduino'
p564
ssS'name'
p565
S'Arduino Fio'
p566
sS'build'
p567
(dp568
S'core'
p569
S'arduino'
p570
sS'mcu'
p571
S'atmega328p'
p572
sS'f_cpu'
p573
S'8000000L'
p574
sS'variant'
p575
S'eightanaloginputs'
p576
ssaa(lp577
S'bt328'
p578
a(dp579
S'bootloader'
p580
(dp581
S'extended_fuses'
p582
S'0x05'
p583
sS'high_fuses'
p584
S'0xd8'
p585
sS'low_fuses'
p586
S'0xff'
p587
sS'lock_bits'
p588
S'0x0F'
p589
sS'file'
p590
S'ATmegaBOOT_168_atmega328_bt.hex'
p591
sS'path'
p592
S'bt'
p593
sS'unlock_bits'
p594
S'0x3F'
p595
ssS'upload'
p596
(dp597
S'speed'
p598
S'19200'
p599
sS'maximum_size'
p600
S'28672'
p601
sS'protocol'
p602
S'arduino'
p603
sS'disable_flushing'
p604
S'true'
p605
ssS'name'
p606
S'Arduino BT w/ ATmega328'
p607
sS'build'
p608
(dp609
S'core'
p610
S'arduino'
p611
sS'mcu'
p612
S'atmega328p'
p613
sS'f_cpu'
p614
S'16000000L'
p615
sS'variant'
p616
S'eightanaloginputs'
p617
ssaa(lp618
S'bt'
p619
a(dp620
S'bootloader'
p621
(dp622
S'extended_fuses'
p623
S'0x00'
p624
sS'high_fuses'
p625
S'0xdd'
p626
sS'low_fuses'
p627
S'0xff'
p628
sS'lock_bits'
p629
S'0x0F'
p630
sS'file'
p631
S'ATmegaBOOT_168.hex'
p632
sS'path'
p633
S'bt'
p634
sS'unlock_bits'
p635
S'0x3F'
p636
ssS'upload'
p637
(dp638
S'speed'
p639
S'19200'
p640
sS'maximum_size'
p641
S'14336'
p642
sS'protocol'
p643
S'arduino'
p644
sS'disable_flushing'
p645
S'true'
p646
ssS'name'
p647
S'Arduino BT w/ ATmega168'
p648
sS'build'
p649
(dp650
S'core'
p651
S'arduino'
p652
sS'mcu'
p653
S'atmega168'
p654
sS'f_cpu'
p655
S'16000000L'
p656
sS'variant'
p657
S'eightanaloginputs'
p658
ssaa(lp659
S'lilypad328'
p660
a(dp661
S'bootloader'
p662
(dp663
S'extended_fuses'
p664
S'0x05'
p665
sS'high_fuses'
p666
S'0xDA'
p667
sS'low_fuses'
p668
S'0xFF'
p669
sS'lock_bits'
p670
S'0x0F'
p671
sS'file'
p672
S'ATmegaBOOT_168_atmega328_pro_8MHz.hex'
p673
sS'path'
p674
S'atmega'
p675
sS'unlock_bits'
p676
S'0x3F'
p677
ssS'upload'
p678
(dp679
S'speed'
p680
S'57600'
p681
sS'maximum_size'
p682
S'30720'
p683
sS'protocol'
p684
S'arduino'
p685
ssS'name'
p686
S'LilyPad Arduino w/ ATmega328'
p687
sS'build'
p688
(dp689
S'core'
p690
S'arduino'
p691
sS'mcu'
p692
S'atmega328p'
p693
sS'f_cpu'
p694
S'8000000L'
p695
sS'variant'
p696
S'standard'
p697
ssaa(lp698
S'lilypad'
p699
a(dp700
S'bootloader'
p701
(dp702
S'extended_fuses'
p703
S'0x00'
p704
sS'high_fuses'
p705
S'0xdd'
p706
sS'low_fuses'
p707
S'0xe2'
p708
sS'lock_bits'
p709
S'0x0F'
p710
sS'file'
p711
S'LilyPadBOOT_168.hex'
p712
sS'path'
p713
S'lilypad'
p714
sS'unlock_bits'
p715
S'0x3F'
p716
ssS'upload'
p717
(dp718
S'speed'
p719
S'19200'
p720
sS'maximum_size'
p721
S'14336'
p722
sS'protocol'
p723
S'arduino'
p724
ssS'name'
p725
S'LilyPad Arduino w/ ATmega168'
p726
sS'build'
p727
(dp728
S'core'
p729
S'arduino'
p730
sS'mcu'
p731
S'atmega168'
p732
sS'f_cpu'
p733
S'8000000L'
p734
sS'variant'
p735
S'standard'
p736
ssaa(lp737
S'pro5v328'
p738
a(dp739
S'bootloader'
p740
(dp741
S'extended_fuses'
p742
S'0x05'
p743
sS'high_fuses'
p744
S'0xDA'
p745
sS'low_fuses'
p746
S'0xFF'
p747
sS'lock_bits'
p748
S'0x0F'
p749
sS'file'
p750
S'ATmegaBOOT_168_atmega328.hex'
p751
sS'path'
p752
S'atmega'
p753
sS'unlock_bits'
p754
S'0x3F'
p755
ssS'upload'
p756
(dp757
S'speed'
p758
S'57600'
p759
sS'maximum_size'
p760
S'30720'
p761
sS'protocol'
p762
S'arduino'
p763
ssS'name'
p764
S'Arduino Pro or Pro Mini (5V, 16 MHz) w/ ATmega328'
p765
sS'build'
p766
(dp767
S'core'
p768
S'arduino'
p769
sS'mcu'
p770
S'atmega328p'
p771
sS'f_cpu'
p772
S'16000000L'
p773
sS'variant'
p774
S'standard'
p775
ssaa(lp776
S'pro5v'
p777
a(dp778
S'bootloader'
p779
(dp780
S'extended_fuses'
p781
S'0x00'
p782
sS'high_fuses'
p783
S'0xdd'
p784
sS'low_fuses'
p785
S'0xff'
p786
sS'lock_bits'
p787
S'0x0F'
p788
sS'file'
p789
S'ATmegaBOOT_168_diecimila.hex'
p790
sS'path'
p791
S'atmega'
p792
sS'unlock_bits'
p793
S'0x3F'
p794
ssS'upload'
p795
(dp796
S'speed'
p797
S'19200'
p798
sS'maximum_size'
p799
S'14336'
p800
sS'protocol'
p801
S'arduino'
p802
ssS'name'
p803
S'Arduino Pro or Pro Mini (5V, 16 MHz) w/ ATmega168'
p804
sS'build'
p805
(dp806
S'core'
p807
S'arduino'
p808
sS'mcu'
p809
S'atmega168'
p810
sS'f_cpu'
p811
S'16000000L'
p812
sS'variant'
p813
S'standard'
p814
ssaa(lp815
S'pro328'
p816
a(dp817
S'bootloader'
p818
(dp819
S'extended_fuses'
p820
S'0x05'
p821
sS'high_fuses'
p822
S'0xDA'
p823
sS'low_fuses'
p824
S'0xFF'
p825
sS'lock_bits'
p826
S'0x0F'
p827
sS'file'
p828
S'ATmegaBOOT_168_atmega328_pro_8MHz.hex'
p829
sS'path'
p830
S'atmega'
p831
sS'unlock_bits'
p832
S'0x3F'
p833
ssS'upload'
p834
(dp835
S'speed'
p836
S'57600'
p837
sS'maximum_size'
p838
S'30720'
p839
sS'protocol'
p840
S'arduino'
p841
ssS'name'
p842
S'Arduino Pro or Pro Mini (3.3V, 8 MHz) w/ ATmega328'
p843
sS'build'
p844
(dp845
S'core'
p846
S'arduino'
p847
sS'mcu'
p848
S'atmega328p'
p849
sS'f_cpu'
p850
S'8000000L'
p851
sS'variant'
p852
S'standard'
p853
ssaa(lp854
S'pro'
p855
a(dp856
S'bootloader'
p857
(dp858
S'extended_fuses'
p859
S'0x00'
p860
sS'high_fuses'
p861
S'0xdd'
p862
sS'low_fuses'
p863
S'0xc6'
p864
sS'lock_bits'
p865
S'0x0F'
p866
sS'file'
p867
S'ATmegaBOOT_168_pro_8MHz.hex'
p868
sS'path'
p869
S'atmega'
p870
sS'unlock_bits'
p871
S'0x3F'
p872
ssS'upload'
p873
(dp874
S'speed'
p875
S'19200'
p876
sS'maximum_size'
p877
S'14336'
p878
sS'protocol'
p879
S'arduino'
p880
ssS'name'
p881
S'Arduino Pro or Pro Mini (3.3V, 8 MHz) w/ ATmega168'
p882
sS'build'
p883
(dp884
S'core'
p885
S'arduino'
p886
sS'mcu'
p887
S'atmega168'
p888
sS'f_cpu'
p889
S'8000000L'
p890
sS'variant'
p891
S'standard'
p892
ssaa(lp893
S'atmega168'
p894
a(dp895
S'bootloader'
p896
(dp897
S'extended_fuses'
p898
S'0x00'
p899
sS'high_fuses'
p900
S'0xdd'
p901
sS'low_fuses'
p902
S'0xff'
p903
sS'lock_bits'
p904
S'0x0F'
p905
sS'file'
p906
S'ATmegaBOOT_168_ng.hex'
p907
sS'path'
p908
S'atmega'
p909
sS'unlock_bits'
p910
S'0x3F'
p911
ssS'upload'
p912
(dp913
S'speed'
p914
S'19200'
p915
sS'maximum_size'
p916
S'14336'
p917
sS'protocol'
p918
S'arduino'
p919
ssS'name'
p920
S'Arduino NG or older w/ ATmega168'
p921
sS'build'
p922
(dp923
S'core'
p924
S'arduino'
p925
sS'mcu'
p926
S'atmega168'
p927
sS'f_cpu'
p928
S'16000000L'
p929
sS'variant'
p930
S'standard'
p931
ssaa(lp932
S'atmega8'
p933
a(dp934
S'bootloader'
p935
(dp936
S'high_fuses'
p937
S'0xca'
p938
sS'low_fuses'
p939
S'0xdf'
p940
sS'lock_bits'
p941
S'0x0F'
p942
sS'file'
p943
S'ATmegaBOOT.hex'
p944
sS'path'
p945
S'atmega8'
p946
sS'unlock_bits'
p947
S'0x3F'
p948
ssS'upload'
p949
(dp950
S'speed'
p951
S'19200'
p952
sS'maximum_size'
p953
S'7168'
p954
sS'protocol'
p955
S'arduino'
p956
ssS'name'
p957
S'Arduino NG or older w/ ATmega8'
p958
sS'build'
p959
(dp960
S'core'
p961
S'arduino'
p962
sS'mcu'
p963
S'atmega8'
p964
sS'f_cpu'
p965
S'16000000L'
p966
sS'variant'
p967
S'standard'
p968
ssaatp969
Rp970
(dp971
S'default'
p972
S'uno'
p973
sbtp974
a(S'cxx'
p975
S'/usr/share/arduino/hardware/tools/avr/bin/avr-g++'
p976
tp977
a.